
stm32f4xx_drivers.elf:     file format elf32-littlearm

Sections:
Idx Name          Size      VMA       LMA       File off  Algn
  0 .isr_vector   00000188  08000000  08000000  00001000  2**0
                  CONTENTS, ALLOC, LOAD, READONLY, DATA
  1 .text         00000104  08000188  08000188  00001188  2**2
                  CONTENTS, ALLOC, LOAD, READONLY, CODE
  2 .rodata       00000000  0800028c  08000294  00001294  2**0
                  CONTENTS, ALLOC, LOAD, DATA
  3 .ARM.extab    00000000  0800028c  0800028c  00001294  2**0
                  CONTENTS
  4 .ARM          00000000  0800028c  0800028c  00001294  2**0
                  CONTENTS
  5 .preinit_array 00000000  0800028c  08000294  00001294  2**0
                  CONTENTS, ALLOC, LOAD, DATA
  6 .init_array   00000004  0800028c  0800028c  0000128c  2**2
                  CONTENTS, ALLOC, LOAD, READONLY, DATA
  7 .fini_array   00000004  08000290  08000290  00001290  2**2
                  CONTENTS, ALLOC, LOAD, READONLY, DATA
  8 .data         00000000  20000000  20000000  00001294  2**0
                  CONTENTS, ALLOC, LOAD, DATA
  9 .ccmram       00000000  10000000  10000000  00001294  2**0
                  CONTENTS
 10 .bss          0000001c  20000000  20000000  00002000  2**2
                  ALLOC
 11 ._user_heap_stack 00000604  2000001c  2000001c  00002000  2**0
                  ALLOC
 12 .ARM.attributes 0000002a  00000000  00000000  00001294  2**0
                  CONTENTS, READONLY
 13 .debug_info   000000c5  00000000  00000000  000012be  2**0
                  CONTENTS, READONLY, DEBUGGING, OCTETS
 14 .debug_abbrev 00000069  00000000  00000000  00001383  2**0
                  CONTENTS, READONLY, DEBUGGING, OCTETS
 15 .debug_aranges 00000048  00000000  00000000  000013f0  2**3
                  CONTENTS, READONLY, DEBUGGING, OCTETS
 16 .debug_rnglists 0000002c  00000000  00000000  00001438  2**0
                  CONTENTS, READONLY, DEBUGGING, OCTETS
 17 .debug_macro  00001afd  00000000  00000000  00001464  2**0
                  CONTENTS, READONLY, DEBUGGING, OCTETS
 18 .debug_line   000005eb  00000000  00000000  00002f61  2**0
                  CONTENTS, READONLY, DEBUGGING, OCTETS
 19 .debug_str    0000759a  00000000  00000000  0000354c  2**0
                  CONTENTS, READONLY, DEBUGGING, OCTETS
 20 .comment      00000043  00000000  00000000  0000aae6  2**0
                  CONTENTS, READONLY
 21 .debug_frame  0000005c  00000000  00000000  0000ab2c  2**2
                  CONTENTS, READONLY, DEBUGGING, OCTETS
 22 .debug_line_str 00000052  00000000  00000000  0000ab88  2**0
                  CONTENTS, READONLY, DEBUGGING, OCTETS

Disassembly of section .text:

08000188 <__do_global_dtors_aux>:
 8000188:	b510      	push	{r4, lr}
 800018a:	4c05      	ldr	r4, [pc, #20]	@ (80001a0 <__do_global_dtors_aux+0x18>)
 800018c:	7823      	ldrb	r3, [r4, #0]
 800018e:	b933      	cbnz	r3, 800019e <__do_global_dtors_aux+0x16>
 8000190:	4b04      	ldr	r3, [pc, #16]	@ (80001a4 <__do_global_dtors_aux+0x1c>)
 8000192:	b113      	cbz	r3, 800019a <__do_global_dtors_aux+0x12>
 8000194:	4804      	ldr	r0, [pc, #16]	@ (80001a8 <__do_global_dtors_aux+0x20>)
 8000196:	f3af 8000 	nop.w
 800019a:	2301      	movs	r3, #1
 800019c:	7023      	strb	r3, [r4, #0]
 800019e:	bd10      	pop	{r4, pc}
 80001a0:	20000000 	.word	0x20000000
 80001a4:	00000000 	.word	0x00000000
 80001a8:	08000274 	.word	0x08000274

080001ac <frame_dummy>:
 80001ac:	b508      	push	{r3, lr}
 80001ae:	4b03      	ldr	r3, [pc, #12]	@ (80001bc <frame_dummy+0x10>)
 80001b0:	b11b      	cbz	r3, 80001ba <frame_dummy+0xe>
 80001b2:	4903      	ldr	r1, [pc, #12]	@ (80001c0 <frame_dummy+0x14>)
 80001b4:	4803      	ldr	r0, [pc, #12]	@ (80001c4 <frame_dummy+0x18>)
 80001b6:	f3af 8000 	nop.w
 80001ba:	bd08      	pop	{r3, pc}
 80001bc:	00000000 	.word	0x00000000
 80001c0:	20000004 	.word	0x20000004
 80001c4:	08000274 	.word	0x08000274

080001c8 <main>:
#include <stdio.h>
#include <stdint.h>


int main()
{
 80001c8:	b480      	push	{r7}
 80001ca:	af00      	add	r7, sp, #0


	return 0;
 80001cc:	2300      	movs	r3, #0
}
 80001ce:	4618      	mov	r0, r3
 80001d0:	46bd      	mov	sp, r7
 80001d2:	bc80      	pop	{r7}
 80001d4:	4770      	bx	lr
	...

080001d8 <Reset_Handler>:

  .section .text.Reset_Handler
  .weak Reset_Handler
  .type Reset_Handler, %function
Reset_Handler:
  ldr   r0, =_estack
 80001d8:	480d      	ldr	r0, [pc, #52]	@ (8000210 <LoopForever+0x2>)
  mov   sp, r0          /* set stack pointer */
 80001da:	4685      	mov	sp, r0
/* Call the clock system initialization function.*/
  bl  SystemInit
 80001dc:	f3af 8000 	nop.w

/* Copy the data segment initializers from flash to SRAM */
  ldr r0, =_sdata
 80001e0:	480c      	ldr	r0, [pc, #48]	@ (8000214 <LoopForever+0x6>)
  ldr r1, =_edata
 80001e2:	490d      	ldr	r1, [pc, #52]	@ (8000218 <LoopForever+0xa>)
  ldr r2, =_sidata
 80001e4:	4a0d      	ldr	r2, [pc, #52]	@ (800021c <LoopForever+0xe>)
  movs r3, #0
 80001e6:	2300      	movs	r3, #0
  b LoopCopyDataInit
 80001e8:	e002      	b.n	80001f0 <LoopCopyDataInit>

080001ea <CopyDataInit>:

CopyDataInit:
  ldr r4, [r2, r3]
 80001ea:	58d4      	ldr	r4, [r2, r3]
  str r4, [r0, r3]
 80001ec:	50c4      	str	r4, [r0, r3]
  adds r3, r3, #4
 80001ee:	3304      	adds	r3, #4

080001f0 <LoopCopyDataInit>:

LoopCopyDataInit:
  adds r4, r0, r3
 80001f0:	18c4      	adds	r4, r0, r3
  cmp r4, r1
 80001f2:	428c      	cmp	r4, r1
  bcc CopyDataInit
 80001f4:	d3f9      	bcc.n	80001ea <CopyDataInit>

/* Zero fill the bss segment. */
  ldr r2, =_sbss
 80001f6:	4a0a      	ldr	r2, [pc, #40]	@ (8000220 <LoopForever+0x12>)
  ldr r4, =_ebss
 80001f8:	4c0a      	ldr	r4, [pc, #40]	@ (8000224 <LoopForever+0x16>)
  movs r3, #0
 80001fa:	2300      	movs	r3, #0
  b LoopFillZerobss
 80001fc:	e001      	b.n	8000202 <LoopFillZerobss>

080001fe <FillZerobss>:

FillZerobss:
  str  r3, [r2]
 80001fe:	6013      	str	r3, [r2, #0]
  adds r2, r2, #4
 8000200:	3204      	adds	r2, #4

08000202 <LoopFillZerobss>:

LoopFillZerobss:
  cmp r2, r4
 8000202:	42a2      	cmp	r2, r4
  bcc FillZerobss
 8000204:	d3fb      	bcc.n	80001fe <FillZerobss>

/* Call static constructors */
  bl __libc_init_array
 8000206:	f000 f811 	bl	800022c <__libc_init_array>
/* Call the application's entry point.*/
  bl main
 800020a:	f7ff ffdd 	bl	80001c8 <main>

0800020e <LoopForever>:

LoopForever:
  b LoopForever
 800020e:	e7fe      	b.n	800020e <LoopForever>
  ldr   r0, =_estack
 8000210:	20020000 	.word	0x20020000
  ldr r0, =_sdata
 8000214:	20000000 	.word	0x20000000
  ldr r1, =_edata
 8000218:	20000000 	.word	0x20000000
  ldr r2, =_sidata
 800021c:	08000294 	.word	0x08000294
  ldr r2, =_sbss
 8000220:	20000000 	.word	0x20000000
  ldr r4, =_ebss
 8000224:	2000001c 	.word	0x2000001c

08000228 <ADC_IRQHandler>:
 * @retval : None
*/
  .section .text.Default_Handler,"ax",%progbits
Default_Handler:
Infinite_Loop:
  b Infinite_Loop
 8000228:	e7fe      	b.n	8000228 <ADC_IRQHandler>
	...

0800022c <__libc_init_array>:
 800022c:	b570      	push	{r4, r5, r6, lr}
 800022e:	4d0d      	ldr	r5, [pc, #52]	@ (8000264 <__libc_init_array+0x38>)
 8000230:	4c0d      	ldr	r4, [pc, #52]	@ (8000268 <__libc_init_array+0x3c>)
 8000232:	1b64      	subs	r4, r4, r5
 8000234:	10a4      	asrs	r4, r4, #2
 8000236:	2600      	movs	r6, #0
 8000238:	42a6      	cmp	r6, r4
 800023a:	d109      	bne.n	8000250 <__libc_init_array+0x24>
 800023c:	4d0b      	ldr	r5, [pc, #44]	@ (800026c <__libc_init_array+0x40>)
 800023e:	4c0c      	ldr	r4, [pc, #48]	@ (8000270 <__libc_init_array+0x44>)
 8000240:	f000 f818 	bl	8000274 <_init>
 8000244:	1b64      	subs	r4, r4, r5
 8000246:	10a4      	asrs	r4, r4, #2
 8000248:	2600      	movs	r6, #0
 800024a:	42a6      	cmp	r6, r4
 800024c:	d105      	bne.n	800025a <__libc_init_array+0x2e>
 800024e:	bd70      	pop	{r4, r5, r6, pc}
 8000250:	f855 3b04 	ldr.w	r3, [r5], #4
 8000254:	4798      	blx	r3
 8000256:	3601      	adds	r6, #1
 8000258:	e7ee      	b.n	8000238 <__libc_init_array+0xc>
 800025a:	f855 3b04 	ldr.w	r3, [r5], #4
 800025e:	4798      	blx	r3
 8000260:	3601      	adds	r6, #1
 8000262:	e7f2      	b.n	800024a <__libc_init_array+0x1e>
 8000264:	0800028c 	.word	0x0800028c
 8000268:	0800028c 	.word	0x0800028c
 800026c:	0800028c 	.word	0x0800028c
 8000270:	08000290 	.word	0x08000290

08000274 <_init>:
 8000274:	b5f8      	push	{r3, r4, r5, r6, r7, lr}
 8000276:	bf00      	nop
 8000278:	bcf8      	pop	{r3, r4, r5, r6, r7}
 800027a:	bc08      	pop	{r3}
 800027c:	469e      	mov	lr, r3
 800027e:	4770      	bx	lr

08000280 <_fini>:
 8000280:	b5f8      	push	{r3, r4, r5, r6, r7, lr}
 8000282:	bf00      	nop
 8000284:	bcf8      	pop	{r3, r4, r5, r6, r7}
 8000286:	bc08      	pop	{r3}
 8000288:	469e      	mov	lr, r3
 800028a:	4770      	bx	lr
