
stm32f4xx_drivers.elf:     file format elf32-littlearm

Sections:
Idx Name          Size      VMA       LMA       File off  Algn
  0 .isr_vector   00000188  08000000  08000000  00001000  2**0
                  CONTENTS, ALLOC, LOAD, READONLY, DATA
  1 .text         00001b90  08000190  08000190  00001190  2**4
                  CONTENTS, ALLOC, LOAD, READONLY, CODE
  2 .rodata       00000048  08001d20  08001d20  00002d20  2**2
                  CONTENTS, ALLOC, LOAD, READONLY, DATA
  3 .ARM.extab    00000000  08001d68  08001d68  00003060  2**0
                  CONTENTS
  4 .ARM          00000008  08001d68  08001d68  00002d68  2**2
                  CONTENTS, ALLOC, LOAD, READONLY, DATA
  5 .preinit_array 00000000  08001d70  08001d70  00003060  2**0
                  CONTENTS, ALLOC, LOAD, DATA
  6 .init_array   00000004  08001d70  08001d70  00002d70  2**2
                  CONTENTS, ALLOC, LOAD, READONLY, DATA
  7 .fini_array   00000004  08001d74  08001d74  00002d74  2**2
                  CONTENTS, ALLOC, LOAD, READONLY, DATA
  8 .data         00000060  20000000  08001d78  00003000  2**2
                  CONTENTS, ALLOC, LOAD, DATA
  9 .ccmram       00000000  10000000  10000000  00003060  2**0
                  CONTENTS
 10 .bss          00000598  20000060  20000060  00003060  2**2
                  ALLOC
 11 ._user_heap_stack 00000600  200005f8  200005f8  00003060  2**0
                  ALLOC
 12 .ARM.attributes 0000002a  00000000  00000000  00003060  2**0
                  CONTENTS, READONLY
 13 .debug_info   00001d3c  00000000  00000000  0000308a  2**0
                  CONTENTS, READONLY, DEBUGGING, OCTETS
 14 .debug_abbrev 0000080f  00000000  00000000  00004dc6  2**0
                  CONTENTS, READONLY, DEBUGGING, OCTETS
 15 .debug_aranges 00000220  00000000  00000000  000055d8  2**3
                  CONTENTS, READONLY, DEBUGGING, OCTETS
 16 .debug_rnglists 00000193  00000000  00000000  000057f8  2**0
                  CONTENTS, READONLY, DEBUGGING, OCTETS
 17 .debug_macro  00003b4a  00000000  00000000  0000598b  2**0
                  CONTENTS, READONLY, DEBUGGING, OCTETS
 18 .debug_line   00002a79  00000000  00000000  000094d5  2**0
                  CONTENTS, READONLY, DEBUGGING, OCTETS
 19 .debug_str    0000cd7c  00000000  00000000  0000bf4e  2**0
                  CONTENTS, READONLY, DEBUGGING, OCTETS
 20 .comment      00000043  00000000  00000000  00018cca  2**0
                  CONTENTS, READONLY
 21 .debug_frame  00000f40  00000000  00000000  00018d10  2**2
                  CONTENTS, READONLY, DEBUGGING, OCTETS
 22 .debug_line_str 00000052  00000000  00000000  00019c50  2**0
                  CONTENTS, READONLY, DEBUGGING, OCTETS

Disassembly of section .text:

08000190 <__do_global_dtors_aux>:
 8000190:	b510      	push	{r4, lr}
 8000192:	4c05      	ldr	r4, [pc, #20]	@ (80001a8 <__do_global_dtors_aux+0x18>)
 8000194:	7823      	ldrb	r3, [r4, #0]
 8000196:	b933      	cbnz	r3, 80001a6 <__do_global_dtors_aux+0x16>
 8000198:	4b04      	ldr	r3, [pc, #16]	@ (80001ac <__do_global_dtors_aux+0x1c>)
 800019a:	b113      	cbz	r3, 80001a2 <__do_global_dtors_aux+0x12>
 800019c:	4804      	ldr	r0, [pc, #16]	@ (80001b0 <__do_global_dtors_aux+0x20>)
 800019e:	f3af 8000 	nop.w
 80001a2:	2301      	movs	r3, #1
 80001a4:	7023      	strb	r3, [r4, #0]
 80001a6:	bd10      	pop	{r4, pc}
 80001a8:	20000060 	.word	0x20000060
 80001ac:	00000000 	.word	0x00000000
 80001b0:	08001d08 	.word	0x08001d08

080001b4 <frame_dummy>:
 80001b4:	b508      	push	{r3, lr}
 80001b6:	4b03      	ldr	r3, [pc, #12]	@ (80001c4 <frame_dummy+0x10>)
 80001b8:	b11b      	cbz	r3, 80001c2 <frame_dummy+0xe>
 80001ba:	4903      	ldr	r1, [pc, #12]	@ (80001c8 <frame_dummy+0x14>)
 80001bc:	4803      	ldr	r0, [pc, #12]	@ (80001cc <frame_dummy+0x18>)
 80001be:	f3af 8000 	nop.w
 80001c2:	bd08      	pop	{r3, pc}
 80001c4:	00000000 	.word	0x00000000
 80001c8:	20000064 	.word	0x20000064
 80001cc:	08001d08 	.word	0x08001d08

080001d0 <memchr>:
 80001d0:	f001 01ff 	and.w	r1, r1, #255	@ 0xff
 80001d4:	2a10      	cmp	r2, #16
 80001d6:	db2b      	blt.n	8000230 <memchr+0x60>
 80001d8:	f010 0f07 	tst.w	r0, #7
 80001dc:	d008      	beq.n	80001f0 <memchr+0x20>
 80001de:	f810 3b01 	ldrb.w	r3, [r0], #1
 80001e2:	3a01      	subs	r2, #1
 80001e4:	428b      	cmp	r3, r1
 80001e6:	d02d      	beq.n	8000244 <memchr+0x74>
 80001e8:	f010 0f07 	tst.w	r0, #7
 80001ec:	b342      	cbz	r2, 8000240 <memchr+0x70>
 80001ee:	d1f6      	bne.n	80001de <memchr+0xe>
 80001f0:	b4f0      	push	{r4, r5, r6, r7}
 80001f2:	ea41 2101 	orr.w	r1, r1, r1, lsl #8
 80001f6:	ea41 4101 	orr.w	r1, r1, r1, lsl #16
 80001fa:	f022 0407 	bic.w	r4, r2, #7
 80001fe:	f07f 0700 	mvns.w	r7, #0
 8000202:	2300      	movs	r3, #0
 8000204:	e8f0 5602 	ldrd	r5, r6, [r0], #8
 8000208:	3c08      	subs	r4, #8
 800020a:	ea85 0501 	eor.w	r5, r5, r1
 800020e:	ea86 0601 	eor.w	r6, r6, r1
 8000212:	fa85 f547 	uadd8	r5, r5, r7
 8000216:	faa3 f587 	sel	r5, r3, r7
 800021a:	fa86 f647 	uadd8	r6, r6, r7
 800021e:	faa5 f687 	sel	r6, r5, r7
 8000222:	b98e      	cbnz	r6, 8000248 <memchr+0x78>
 8000224:	d1ee      	bne.n	8000204 <memchr+0x34>
 8000226:	bcf0      	pop	{r4, r5, r6, r7}
 8000228:	f001 01ff 	and.w	r1, r1, #255	@ 0xff
 800022c:	f002 0207 	and.w	r2, r2, #7
 8000230:	b132      	cbz	r2, 8000240 <memchr+0x70>
 8000232:	f810 3b01 	ldrb.w	r3, [r0], #1
 8000236:	3a01      	subs	r2, #1
 8000238:	ea83 0301 	eor.w	r3, r3, r1
 800023c:	b113      	cbz	r3, 8000244 <memchr+0x74>
 800023e:	d1f8      	bne.n	8000232 <memchr+0x62>
 8000240:	2000      	movs	r0, #0
 8000242:	4770      	bx	lr
 8000244:	3801      	subs	r0, #1
 8000246:	4770      	bx	lr
 8000248:	2d00      	cmp	r5, #0
 800024a:	bf06      	itte	eq
 800024c:	4635      	moveq	r5, r6
 800024e:	3803      	subeq	r0, #3
 8000250:	3807      	subne	r0, #7
 8000252:	f015 0f01 	tst.w	r5, #1
 8000256:	d107      	bne.n	8000268 <memchr+0x98>
 8000258:	3001      	adds	r0, #1
 800025a:	f415 7f80 	tst.w	r5, #256	@ 0x100
 800025e:	bf02      	ittt	eq
 8000260:	3001      	addeq	r0, #1
 8000262:	f415 3fc0 	tsteq.w	r5, #98304	@ 0x18000
 8000266:	3001      	addeq	r0, #1
 8000268:	bcf0      	pop	{r4, r5, r6, r7}
 800026a:	3801      	subs	r0, #1
 800026c:	4770      	bx	lr
 800026e:	bf00      	nop

08000270 <main>:
I2C_Handle_t I2C1Handle;



int main(void)
{
 8000270:	b580      	push	{r7, lr}
 8000272:	af00      	add	r7, sp, #0
	I2C1GPIOInits();
 8000274:	f000 f830 	bl	80002d8 <I2C1GPIOInits>

	I2C1Inits();
 8000278:	f000 f856 	bl	8000328 <I2C1Inits>

	ButtonGPIOInits();
 800027c:	f000 f80e 	bl	800029c <ButtonGPIOInits>

	GPIO_IRQITConfig(IRQ_EXTI0, ENABLE);
 8000280:	2101      	movs	r1, #1
 8000282:	2006      	movs	r0, #6
 8000284:	f000 fd72 	bl	8000d6c <GPIO_IRQITConfig>
			I2C_MasterReceiveData(&I2C1Handle, buffer, length, SLAVEADDR);
	 * }
	 * I2C_PeripheralControl(I2C1Handle, DISABLE);
	 */

	printf("Data received: %s\n",buffer);
 8000288:	4902      	ldr	r1, [pc, #8]	@ (8000294 <main+0x24>)
 800028a:	4803      	ldr	r0, [pc, #12]	@ (8000298 <main+0x28>)
 800028c:	f000 fed4 	bl	8001038 <iprintf>

	while(1);
 8000290:	bf00      	nop
 8000292:	e7fd      	b.n	8000290 <main+0x20>
 8000294:	2000007c 	.word	0x2000007c
 8000298:	08001d20 	.word	0x08001d20

0800029c <ButtonGPIOInits>:

	return 0;
}

void ButtonGPIOInits(void)
{
 800029c:	b580      	push	{r7, lr}
 800029e:	b084      	sub	sp, #16
 80002a0:	af00      	add	r7, sp, #0
	GPIO_Handle_t Button;
	memset(&Button,0,sizeof(Button));
 80002a2:	1d3b      	adds	r3, r7, #4
 80002a4:	220c      	movs	r2, #12
 80002a6:	2100      	movs	r1, #0
 80002a8:	4618      	mov	r0, r3
 80002aa:	f000 ff1a 	bl	80010e2 <memset>
	Button.pGPIOx = GPIOA;
 80002ae:	4b09      	ldr	r3, [pc, #36]	@ (80002d4 <ButtonGPIOInits+0x38>)
 80002b0:	607b      	str	r3, [r7, #4]
	Button.GPIO_PinConfig.GPIO_PinNumber = GPIO_PIN_0;
 80002b2:	2300      	movs	r3, #0
 80002b4:	723b      	strb	r3, [r7, #8]
	Button.GPIO_PinConfig.GPIO_PinMode = GPIO_MODE_IT_FT;
 80002b6:	2304      	movs	r3, #4
 80002b8:	727b      	strb	r3, [r7, #9]
	Button.GPIO_PinConfig.GPIO_PinSpeed = GPIO_OUT_SPEED_HIGH;
 80002ba:	2302      	movs	r3, #2
 80002bc:	72bb      	strb	r3, [r7, #10]
	Button.GPIO_PinConfig.GPIO_PinPuPdControl = GPIO_PUPD_NONE;
 80002be:	2300      	movs	r3, #0
 80002c0:	72fb      	strb	r3, [r7, #11]

	GPIO_Init(&Button);
 80002c2:	1d3b      	adds	r3, r7, #4
 80002c4:	4618      	mov	r0, r3
 80002c6:	f000 fbbb 	bl	8000a40 <GPIO_Init>
}
 80002ca:	bf00      	nop
 80002cc:	3710      	adds	r7, #16
 80002ce:	46bd      	mov	sp, r7
 80002d0:	bd80      	pop	{r7, pc}
 80002d2:	bf00      	nop
 80002d4:	40020000 	.word	0x40020000

080002d8 <I2C1GPIOInits>:

void I2C1GPIOInits(void)
{
 80002d8:	b580      	push	{r7, lr}
 80002da:	b084      	sub	sp, #16
 80002dc:	af00      	add	r7, sp, #0
	GPIO_Handle_t I2C1GPIO;
	memset(&I2C1GPIO,0,sizeof(I2C1GPIO));
 80002de:	1d3b      	adds	r3, r7, #4
 80002e0:	220c      	movs	r2, #12
 80002e2:	2100      	movs	r1, #0
 80002e4:	4618      	mov	r0, r3
 80002e6:	f000 fefc 	bl	80010e2 <memset>
	I2C1GPIO.pGPIOx = GPIOB;
 80002ea:	4b0e      	ldr	r3, [pc, #56]	@ (8000324 <I2C1GPIOInits+0x4c>)
 80002ec:	607b      	str	r3, [r7, #4]
	I2C1GPIO.GPIO_PinConfig.GPIO_PinMode = GPIO_MODE_ALTFN;
 80002ee:	2302      	movs	r3, #2
 80002f0:	727b      	strb	r3, [r7, #9]
	I2C1GPIO.GPIO_PinConfig.GPIO_PinAltFunMode = GPIO_ALTFN_AF4;
 80002f2:	2304      	movs	r3, #4
 80002f4:	737b      	strb	r3, [r7, #13]
	I2C1GPIO.GPIO_PinConfig.GPIO_PinSpeed = GPIO_OUT_SPEED_LOW;
 80002f6:	2300      	movs	r3, #0
 80002f8:	72bb      	strb	r3, [r7, #10]
	I2C1GPIO.GPIO_PinConfig.GPIO_PinOPType = GPIO_OUT_TYPE_OD;
 80002fa:	2301      	movs	r3, #1
 80002fc:	733b      	strb	r3, [r7, #12]
	I2C1GPIO.GPIO_PinConfig.GPIO_PinPuPdControl = GPIO_PUPD_PULLUP;
 80002fe:	2301      	movs	r3, #1
 8000300:	72fb      	strb	r3, [r7, #11]

	I2C1GPIO.GPIO_PinConfig.GPIO_PinNumber = GPIO_PIN_6;
 8000302:	2306      	movs	r3, #6
 8000304:	723b      	strb	r3, [r7, #8]
	GPIO_Init(&I2C1GPIO);
 8000306:	1d3b      	adds	r3, r7, #4
 8000308:	4618      	mov	r0, r3
 800030a:	f000 fb99 	bl	8000a40 <GPIO_Init>

	I2C1GPIO.GPIO_PinConfig.GPIO_PinNumber = GPIO_PIN_7;
 800030e:	2307      	movs	r3, #7
 8000310:	723b      	strb	r3, [r7, #8]
	GPIO_Init(&I2C1GPIO);
 8000312:	1d3b      	adds	r3, r7, #4
 8000314:	4618      	mov	r0, r3
 8000316:	f000 fb93 	bl	8000a40 <GPIO_Init>
}
 800031a:	bf00      	nop
 800031c:	3710      	adds	r7, #16
 800031e:	46bd      	mov	sp, r7
 8000320:	bd80      	pop	{r7, pc}
 8000322:	bf00      	nop
 8000324:	40020400 	.word	0x40020400

08000328 <I2C1Inits>:

void I2C1Inits(void)
{
 8000328:	b480      	push	{r7}
 800032a:	af00      	add	r7, sp, #0
	I2C1Handle.pI2Cx = I2C1;
 800032c:	4b07      	ldr	r3, [pc, #28]	@ (800034c <I2C1Inits+0x24>)
 800032e:	4a08      	ldr	r2, [pc, #32]	@ (8000350 <I2C1Inits+0x28>)
 8000330:	609a      	str	r2, [r3, #8]
	I2C1Handle.I2C_Config.I2C_ACKControl = I2C_ACKCTRL_ACK_EN;
 8000332:	4b06      	ldr	r3, [pc, #24]	@ (800034c <I2C1Inits+0x24>)
 8000334:	2201      	movs	r2, #1
 8000336:	715a      	strb	r2, [r3, #5]
	I2C1Handle.I2C_Config.I2C_DeviceAddress = 0x68;
 8000338:	4b04      	ldr	r3, [pc, #16]	@ (800034c <I2C1Inits+0x24>)
 800033a:	2268      	movs	r2, #104	@ 0x68
 800033c:	711a      	strb	r2, [r3, #4]
	I2C1Handle.I2C_Config.I2C_SCLSpeed = I2C_SCL_SPEED_SM_KHZ;
 800033e:	4b03      	ldr	r3, [pc, #12]	@ (800034c <I2C1Inits+0x24>)
 8000340:	4a04      	ldr	r2, [pc, #16]	@ (8000354 <I2C1Inits+0x2c>)
 8000342:	601a      	str	r2, [r3, #0]

}
 8000344:	bf00      	nop
 8000346:	46bd      	mov	sp, r7
 8000348:	bc80      	pop	{r7}
 800034a:	4770      	bx	lr
 800034c:	20000480 	.word	0x20000480
 8000350:	40005400 	.word	0x40005400
 8000354:	000186a0 	.word	0x000186a0

08000358 <EXTI0_IRQHandler>:

void EXTI0_IRQHandler()
{
 8000358:	b580      	push	{r7, lr}
 800035a:	b082      	sub	sp, #8
 800035c:	af02      	add	r7, sp, #8
	GPIO_IRQHandling(GPIO_PIN_0);
 800035e:	2000      	movs	r0, #0
 8000360:	f000 fd88 	bl	8000e74 <GPIO_IRQHandling>

	I2C_PeripheralControl(I2C1Handle.pI2Cx, ENABLE);
 8000364:	4b1a      	ldr	r3, [pc, #104]	@ (80003d0 <EXTI0_IRQHandler+0x78>)
 8000366:	689b      	ldr	r3, [r3, #8]
 8000368:	2101      	movs	r1, #1
 800036a:	4618      	mov	r0, r3
 800036c:	f000 f903 	bl	8000576 <I2C_PeripheralControl>

	I2C_ManageAcking(I2C1Handle.pI2Cx, ENABLE);
 8000370:	4b17      	ldr	r3, [pc, #92]	@ (80003d0 <EXTI0_IRQHandler+0x78>)
 8000372:	689b      	ldr	r3, [r3, #8]
 8000374:	2101      	movs	r1, #1
 8000376:	4618      	mov	r0, r3
 8000378:	f000 f91b 	bl	80005b2 <I2C_ManageAcking>

	I2C_MasterSendData(&I2C1Handle, &CMDReadLen, 1, SLAVEADDR, I2C_SR);
 800037c:	2301      	movs	r3, #1
 800037e:	9300      	str	r3, [sp, #0]
 8000380:	2361      	movs	r3, #97	@ 0x61
 8000382:	2201      	movs	r2, #1
 8000384:	4913      	ldr	r1, [pc, #76]	@ (80003d4 <EXTI0_IRQHandler+0x7c>)
 8000386:	4812      	ldr	r0, [pc, #72]	@ (80003d0 <EXTI0_IRQHandler+0x78>)
 8000388:	f000 f94a 	bl	8000620 <I2C_MasterSendData>

	I2C_MasterReceiveData(&I2C1Handle, &length, 1, SLAVEADDR, I2C_SR);
 800038c:	2301      	movs	r3, #1
 800038e:	9300      	str	r3, [sp, #0]
 8000390:	2361      	movs	r3, #97	@ 0x61
 8000392:	2201      	movs	r2, #1
 8000394:	4910      	ldr	r1, [pc, #64]	@ (80003d8 <EXTI0_IRQHandler+0x80>)
 8000396:	480e      	ldr	r0, [pc, #56]	@ (80003d0 <EXTI0_IRQHandler+0x78>)
 8000398:	f000 f9b7 	bl	800070a <I2C_MasterReceiveData>

	I2C_MasterSendData(&I2C1Handle, &CMDReadData, 1, SLAVEADDR,I2C_SR);
 800039c:	2301      	movs	r3, #1
 800039e:	9300      	str	r3, [sp, #0]
 80003a0:	2361      	movs	r3, #97	@ 0x61
 80003a2:	2201      	movs	r2, #1
 80003a4:	490d      	ldr	r1, [pc, #52]	@ (80003dc <EXTI0_IRQHandler+0x84>)
 80003a6:	480a      	ldr	r0, [pc, #40]	@ (80003d0 <EXTI0_IRQHandler+0x78>)
 80003a8:	f000 f93a 	bl	8000620 <I2C_MasterSendData>

	I2C_MasterReceiveData(&I2C1Handle, buffer, length, SLAVEADDR, I2C_NO_SR);
 80003ac:	4b0a      	ldr	r3, [pc, #40]	@ (80003d8 <EXTI0_IRQHandler+0x80>)
 80003ae:	781a      	ldrb	r2, [r3, #0]
 80003b0:	2300      	movs	r3, #0
 80003b2:	9300      	str	r3, [sp, #0]
 80003b4:	2361      	movs	r3, #97	@ 0x61
 80003b6:	490a      	ldr	r1, [pc, #40]	@ (80003e0 <EXTI0_IRQHandler+0x88>)
 80003b8:	4805      	ldr	r0, [pc, #20]	@ (80003d0 <EXTI0_IRQHandler+0x78>)
 80003ba:	f000 f9a6 	bl	800070a <I2C_MasterReceiveData>

	I2C_PeripheralControl(I2C1Handle.pI2Cx, DISABLE);
 80003be:	4b04      	ldr	r3, [pc, #16]	@ (80003d0 <EXTI0_IRQHandler+0x78>)
 80003c0:	689b      	ldr	r3, [r3, #8]
 80003c2:	2100      	movs	r1, #0
 80003c4:	4618      	mov	r0, r3
 80003c6:	f000 f8d6 	bl	8000576 <I2C_PeripheralControl>
}
 80003ca:	bf00      	nop
 80003cc:	46bd      	mov	sp, r7
 80003ce:	bd80      	pop	{r7, pc}
 80003d0:	20000480 	.word	0x20000480
 80003d4:	20000000 	.word	0x20000000
 80003d8:	2000047c 	.word	0x2000047c
 80003dc:	20000001 	.word	0x20000001
 80003e0:	2000007c 	.word	0x2000007c

080003e4 <_read>:
  _kill(status, -1);
  while (1) {}    /* Make sure we hang here */
}

__attribute__((weak)) int _read(int file, char *ptr, int len)
{
 80003e4:	b580      	push	{r7, lr}
 80003e6:	b086      	sub	sp, #24
 80003e8:	af00      	add	r7, sp, #0
 80003ea:	60f8      	str	r0, [r7, #12]
 80003ec:	60b9      	str	r1, [r7, #8]
 80003ee:	607a      	str	r2, [r7, #4]
  (void)file;
  int DataIdx;

  for (DataIdx = 0; DataIdx < len; DataIdx++)
 80003f0:	2300      	movs	r3, #0
 80003f2:	617b      	str	r3, [r7, #20]
 80003f4:	e00a      	b.n	800040c <_read+0x28>
  {
    *ptr++ = __io_getchar();
 80003f6:	f3af 8000 	nop.w
 80003fa:	4601      	mov	r1, r0
 80003fc:	68bb      	ldr	r3, [r7, #8]
 80003fe:	1c5a      	adds	r2, r3, #1
 8000400:	60ba      	str	r2, [r7, #8]
 8000402:	b2ca      	uxtb	r2, r1
 8000404:	701a      	strb	r2, [r3, #0]
  for (DataIdx = 0; DataIdx < len; DataIdx++)
 8000406:	697b      	ldr	r3, [r7, #20]
 8000408:	3301      	adds	r3, #1
 800040a:	617b      	str	r3, [r7, #20]
 800040c:	697a      	ldr	r2, [r7, #20]
 800040e:	687b      	ldr	r3, [r7, #4]
 8000410:	429a      	cmp	r2, r3
 8000412:	dbf0      	blt.n	80003f6 <_read+0x12>
  }

  return len;
 8000414:	687b      	ldr	r3, [r7, #4]
}
 8000416:	4618      	mov	r0, r3
 8000418:	3718      	adds	r7, #24
 800041a:	46bd      	mov	sp, r7
 800041c:	bd80      	pop	{r7, pc}

0800041e <_write>:

__attribute__((weak)) int _write(int file, char *ptr, int len)
{
 800041e:	b580      	push	{r7, lr}
 8000420:	b086      	sub	sp, #24
 8000422:	af00      	add	r7, sp, #0
 8000424:	60f8      	str	r0, [r7, #12]
 8000426:	60b9      	str	r1, [r7, #8]
 8000428:	607a      	str	r2, [r7, #4]
  (void)file;
  int DataIdx;

  for (DataIdx = 0; DataIdx < len; DataIdx++)
 800042a:	2300      	movs	r3, #0
 800042c:	617b      	str	r3, [r7, #20]
 800042e:	e009      	b.n	8000444 <_write+0x26>
  {
    __io_putchar(*ptr++);
 8000430:	68bb      	ldr	r3, [r7, #8]
 8000432:	1c5a      	adds	r2, r3, #1
 8000434:	60ba      	str	r2, [r7, #8]
 8000436:	781b      	ldrb	r3, [r3, #0]
 8000438:	4618      	mov	r0, r3
 800043a:	f3af 8000 	nop.w
  for (DataIdx = 0; DataIdx < len; DataIdx++)
 800043e:	697b      	ldr	r3, [r7, #20]
 8000440:	3301      	adds	r3, #1
 8000442:	617b      	str	r3, [r7, #20]
 8000444:	697a      	ldr	r2, [r7, #20]
 8000446:	687b      	ldr	r3, [r7, #4]
 8000448:	429a      	cmp	r2, r3
 800044a:	dbf1      	blt.n	8000430 <_write+0x12>
  }
  return len;
 800044c:	687b      	ldr	r3, [r7, #4]
}
 800044e:	4618      	mov	r0, r3
 8000450:	3718      	adds	r7, #24
 8000452:	46bd      	mov	sp, r7
 8000454:	bd80      	pop	{r7, pc}

08000456 <_close>:

int _close(int file)
{
 8000456:	b480      	push	{r7}
 8000458:	b083      	sub	sp, #12
 800045a:	af00      	add	r7, sp, #0
 800045c:	6078      	str	r0, [r7, #4]
  (void)file;
  return -1;
 800045e:	f04f 33ff 	mov.w	r3, #4294967295
}
 8000462:	4618      	mov	r0, r3
 8000464:	370c      	adds	r7, #12
 8000466:	46bd      	mov	sp, r7
 8000468:	bc80      	pop	{r7}
 800046a:	4770      	bx	lr

0800046c <_fstat>:


int _fstat(int file, struct stat *st)
{
 800046c:	b480      	push	{r7}
 800046e:	b083      	sub	sp, #12
 8000470:	af00      	add	r7, sp, #0
 8000472:	6078      	str	r0, [r7, #4]
 8000474:	6039      	str	r1, [r7, #0]
  (void)file;
  st->st_mode = S_IFCHR;
 8000476:	683b      	ldr	r3, [r7, #0]
 8000478:	f44f 5200 	mov.w	r2, #8192	@ 0x2000
 800047c:	605a      	str	r2, [r3, #4]
  return 0;
 800047e:	2300      	movs	r3, #0
}
 8000480:	4618      	mov	r0, r3
 8000482:	370c      	adds	r7, #12
 8000484:	46bd      	mov	sp, r7
 8000486:	bc80      	pop	{r7}
 8000488:	4770      	bx	lr

0800048a <_isatty>:

int _isatty(int file)
{
 800048a:	b480      	push	{r7}
 800048c:	b083      	sub	sp, #12
 800048e:	af00      	add	r7, sp, #0
 8000490:	6078      	str	r0, [r7, #4]
  (void)file;
  return 1;
 8000492:	2301      	movs	r3, #1
}
 8000494:	4618      	mov	r0, r3
 8000496:	370c      	adds	r7, #12
 8000498:	46bd      	mov	sp, r7
 800049a:	bc80      	pop	{r7}
 800049c:	4770      	bx	lr

0800049e <_lseek>:

int _lseek(int file, int ptr, int dir)
{
 800049e:	b480      	push	{r7}
 80004a0:	b085      	sub	sp, #20
 80004a2:	af00      	add	r7, sp, #0
 80004a4:	60f8      	str	r0, [r7, #12]
 80004a6:	60b9      	str	r1, [r7, #8]
 80004a8:	607a      	str	r2, [r7, #4]
  (void)file;
  (void)ptr;
  (void)dir;
  return 0;
 80004aa:	2300      	movs	r3, #0
}
 80004ac:	4618      	mov	r0, r3
 80004ae:	3714      	adds	r7, #20
 80004b0:	46bd      	mov	sp, r7
 80004b2:	bc80      	pop	{r7}
 80004b4:	4770      	bx	lr
	...

080004b8 <_sbrk>:
 *
 * @param incr Memory size
 * @return Pointer to allocated memory
 */
void *_sbrk(ptrdiff_t incr)
{
 80004b8:	b580      	push	{r7, lr}
 80004ba:	b086      	sub	sp, #24
 80004bc:	af00      	add	r7, sp, #0
 80004be:	6078      	str	r0, [r7, #4]
  extern uint8_t _end; /* Symbol defined in the linker script */
  extern uint8_t _estack; /* Symbol defined in the linker script */
  extern uint32_t _Min_Stack_Size; /* Symbol defined in the linker script */
  const uint32_t stack_limit = (uint32_t)&_estack - (uint32_t)&_Min_Stack_Size;
 80004c0:	4a14      	ldr	r2, [pc, #80]	@ (8000514 <_sbrk+0x5c>)
 80004c2:	4b15      	ldr	r3, [pc, #84]	@ (8000518 <_sbrk+0x60>)
 80004c4:	1ad3      	subs	r3, r2, r3
 80004c6:	617b      	str	r3, [r7, #20]
  const uint8_t *max_heap = (uint8_t *)stack_limit;
 80004c8:	697b      	ldr	r3, [r7, #20]
 80004ca:	613b      	str	r3, [r7, #16]
  uint8_t *prev_heap_end;

  /* Initialize heap end at first call */
  if (NULL == __sbrk_heap_end)
 80004cc:	4b13      	ldr	r3, [pc, #76]	@ (800051c <_sbrk+0x64>)
 80004ce:	681b      	ldr	r3, [r3, #0]
 80004d0:	2b00      	cmp	r3, #0
 80004d2:	d102      	bne.n	80004da <_sbrk+0x22>
  {
    __sbrk_heap_end = &_end;
 80004d4:	4b11      	ldr	r3, [pc, #68]	@ (800051c <_sbrk+0x64>)
 80004d6:	4a12      	ldr	r2, [pc, #72]	@ (8000520 <_sbrk+0x68>)
 80004d8:	601a      	str	r2, [r3, #0]
  }

  /* Protect heap from growing into the reserved MSP stack */
  if (__sbrk_heap_end + incr > max_heap)
 80004da:	4b10      	ldr	r3, [pc, #64]	@ (800051c <_sbrk+0x64>)
 80004dc:	681a      	ldr	r2, [r3, #0]
 80004de:	687b      	ldr	r3, [r7, #4]
 80004e0:	4413      	add	r3, r2
 80004e2:	693a      	ldr	r2, [r7, #16]
 80004e4:	429a      	cmp	r2, r3
 80004e6:	d207      	bcs.n	80004f8 <_sbrk+0x40>
  {
    errno = ENOMEM;
 80004e8:	f000 fe4a 	bl	8001180 <__errno>
 80004ec:	4603      	mov	r3, r0
 80004ee:	220c      	movs	r2, #12
 80004f0:	601a      	str	r2, [r3, #0]
    return (void *)-1;
 80004f2:	f04f 33ff 	mov.w	r3, #4294967295
 80004f6:	e009      	b.n	800050c <_sbrk+0x54>
  }

  prev_heap_end = __sbrk_heap_end;
 80004f8:	4b08      	ldr	r3, [pc, #32]	@ (800051c <_sbrk+0x64>)
 80004fa:	681b      	ldr	r3, [r3, #0]
 80004fc:	60fb      	str	r3, [r7, #12]
  __sbrk_heap_end += incr;
 80004fe:	4b07      	ldr	r3, [pc, #28]	@ (800051c <_sbrk+0x64>)
 8000500:	681a      	ldr	r2, [r3, #0]
 8000502:	687b      	ldr	r3, [r7, #4]
 8000504:	4413      	add	r3, r2
 8000506:	4a05      	ldr	r2, [pc, #20]	@ (800051c <_sbrk+0x64>)
 8000508:	6013      	str	r3, [r2, #0]

  return (void *)prev_heap_end;
 800050a:	68fb      	ldr	r3, [r7, #12]
}
 800050c:	4618      	mov	r0, r3
 800050e:	3718      	adds	r7, #24
 8000510:	46bd      	mov	sp, r7
 8000512:	bd80      	pop	{r7, pc}
 8000514:	20020000 	.word	0x20020000
 8000518:	00000400 	.word	0x00000400
 800051c:	200004a8 	.word	0x200004a8
 8000520:	200005f8 	.word	0x200005f8

08000524 <Reset_Handler>:

  .section .text.Reset_Handler
  .weak Reset_Handler
  .type Reset_Handler, %function
Reset_Handler:
  ldr   r0, =_estack
 8000524:	480d      	ldr	r0, [pc, #52]	@ (800055c <LoopForever+0x2>)
  mov   sp, r0          /* set stack pointer */
 8000526:	4685      	mov	sp, r0
/* Call the clock system initialization function.*/
  bl  SystemInit
 8000528:	f3af 8000 	nop.w

/* Copy the data segment initializers from flash to SRAM */
  ldr r0, =_sdata
 800052c:	480c      	ldr	r0, [pc, #48]	@ (8000560 <LoopForever+0x6>)
  ldr r1, =_edata
 800052e:	490d      	ldr	r1, [pc, #52]	@ (8000564 <LoopForever+0xa>)
  ldr r2, =_sidata
 8000530:	4a0d      	ldr	r2, [pc, #52]	@ (8000568 <LoopForever+0xe>)
  movs r3, #0
 8000532:	2300      	movs	r3, #0
  b LoopCopyDataInit
 8000534:	e002      	b.n	800053c <LoopCopyDataInit>

08000536 <CopyDataInit>:

CopyDataInit:
  ldr r4, [r2, r3]
 8000536:	58d4      	ldr	r4, [r2, r3]
  str r4, [r0, r3]
 8000538:	50c4      	str	r4, [r0, r3]
  adds r3, r3, #4
 800053a:	3304      	adds	r3, #4

0800053c <LoopCopyDataInit>:

LoopCopyDataInit:
  adds r4, r0, r3
 800053c:	18c4      	adds	r4, r0, r3
  cmp r4, r1
 800053e:	428c      	cmp	r4, r1
  bcc CopyDataInit
 8000540:	d3f9      	bcc.n	8000536 <CopyDataInit>

/* Zero fill the bss segment. */
  ldr r2, =_sbss
 8000542:	4a0a      	ldr	r2, [pc, #40]	@ (800056c <LoopForever+0x12>)
  ldr r4, =_ebss
 8000544:	4c0a      	ldr	r4, [pc, #40]	@ (8000570 <LoopForever+0x16>)
  movs r3, #0
 8000546:	2300      	movs	r3, #0
  b LoopFillZerobss
 8000548:	e001      	b.n	800054e <LoopFillZerobss>

0800054a <FillZerobss>:

FillZerobss:
  str  r3, [r2]
 800054a:	6013      	str	r3, [r2, #0]
  adds r2, r2, #4
 800054c:	3204      	adds	r2, #4

0800054e <LoopFillZerobss>:

LoopFillZerobss:
  cmp r2, r4
 800054e:	42a2      	cmp	r2, r4
  bcc FillZerobss
 8000550:	d3fb      	bcc.n	800054a <FillZerobss>

/* Call static constructors */
  bl __libc_init_array
 8000552:	f000 fe1b 	bl	800118c <__libc_init_array>
/* Call the application's entry point.*/
  bl main
 8000556:	f7ff fe8b 	bl	8000270 <main>

0800055a <LoopForever>:

LoopForever:
  b LoopForever
 800055a:	e7fe      	b.n	800055a <LoopForever>
  ldr   r0, =_estack
 800055c:	20020000 	.word	0x20020000
  ldr r0, =_sdata
 8000560:	20000000 	.word	0x20000000
  ldr r1, =_edata
 8000564:	20000060 	.word	0x20000060
  ldr r2, =_sidata
 8000568:	08001d78 	.word	0x08001d78
  ldr r2, =_sbss
 800056c:	20000060 	.word	0x20000060
  ldr r4, =_ebss
 8000570:	200005f8 	.word	0x200005f8

08000574 <ADC_IRQHandler>:
 * @retval : None
*/
  .section .text.Default_Handler,"ax",%progbits
Default_Handler:
Infinite_Loop:
  b Infinite_Loop
 8000574:	e7fe      	b.n	8000574 <ADC_IRQHandler>

08000576 <I2C_PeripheralControl>:
 *
 * @Note			-
 *
 *************************************************************************************************/
void I2C_PeripheralControl(I2C_RegDef_t *pI2Cx, uint8_t EnOrDi)
{
 8000576:	b480      	push	{r7}
 8000578:	b083      	sub	sp, #12
 800057a:	af00      	add	r7, sp, #0
 800057c:	6078      	str	r0, [r7, #4]
 800057e:	460b      	mov	r3, r1
 8000580:	70fb      	strb	r3, [r7, #3]
	if(EnOrDi == ENABLE)
 8000582:	78fb      	ldrb	r3, [r7, #3]
 8000584:	2b01      	cmp	r3, #1
 8000586:	d106      	bne.n	8000596 <I2C_PeripheralControl+0x20>
	{
		pI2Cx->CR1 |= (1 << I2C_CR1_PE);
 8000588:	687b      	ldr	r3, [r7, #4]
 800058a:	681b      	ldr	r3, [r3, #0]
 800058c:	f043 0201 	orr.w	r2, r3, #1
 8000590:	687b      	ldr	r3, [r7, #4]
 8000592:	601a      	str	r2, [r3, #0]
	}
	else if(EnOrDi == DISABLE)
	{
		pI2Cx->CR1 |= (1 << I2C_CR1_PE);
	}
}
 8000594:	e008      	b.n	80005a8 <I2C_PeripheralControl+0x32>
	else if(EnOrDi == DISABLE)
 8000596:	78fb      	ldrb	r3, [r7, #3]
 8000598:	2b00      	cmp	r3, #0
 800059a:	d105      	bne.n	80005a8 <I2C_PeripheralControl+0x32>
		pI2Cx->CR1 |= (1 << I2C_CR1_PE);
 800059c:	687b      	ldr	r3, [r7, #4]
 800059e:	681b      	ldr	r3, [r3, #0]
 80005a0:	f043 0201 	orr.w	r2, r3, #1
 80005a4:	687b      	ldr	r3, [r7, #4]
 80005a6:	601a      	str	r2, [r3, #0]
}
 80005a8:	bf00      	nop
 80005aa:	370c      	adds	r7, #12
 80005ac:	46bd      	mov	sp, r7
 80005ae:	bc80      	pop	{r7}
 80005b0:	4770      	bx	lr

080005b2 <I2C_ManageAcking>:
 *
 * @Note			-
 *
 *************************************************************************************************/
void I2C_ManageAcking(I2C_RegDef_t *pI2Cx, uint8_t EnOrDi)
{
 80005b2:	b480      	push	{r7}
 80005b4:	b083      	sub	sp, #12
 80005b6:	af00      	add	r7, sp, #0
 80005b8:	6078      	str	r0, [r7, #4]
 80005ba:	460b      	mov	r3, r1
 80005bc:	70fb      	strb	r3, [r7, #3]
	if(EnOrDi == ENABLE)
 80005be:	78fb      	ldrb	r3, [r7, #3]
 80005c0:	2b01      	cmp	r3, #1
 80005c2:	d106      	bne.n	80005d2 <I2C_ManageAcking+0x20>
	{
		pI2Cx->CR1 |= (1 << I2C_CR1_ACK);
 80005c4:	687b      	ldr	r3, [r7, #4]
 80005c6:	681b      	ldr	r3, [r3, #0]
 80005c8:	f443 6280 	orr.w	r2, r3, #1024	@ 0x400
 80005cc:	687b      	ldr	r3, [r7, #4]
 80005ce:	601a      	str	r2, [r3, #0]
	}
	else if(EnOrDi == DISABLE)
	{
		pI2Cx->CR1 |= (1 << I2C_CR1_ACK);
	}
}
 80005d0:	e008      	b.n	80005e4 <I2C_ManageAcking+0x32>
	else if(EnOrDi == DISABLE)
 80005d2:	78fb      	ldrb	r3, [r7, #3]
 80005d4:	2b00      	cmp	r3, #0
 80005d6:	d105      	bne.n	80005e4 <I2C_ManageAcking+0x32>
		pI2Cx->CR1 |= (1 << I2C_CR1_ACK);
 80005d8:	687b      	ldr	r3, [r7, #4]
 80005da:	681b      	ldr	r3, [r3, #0]
 80005dc:	f443 6280 	orr.w	r2, r3, #1024	@ 0x400
 80005e0:	687b      	ldr	r3, [r7, #4]
 80005e2:	601a      	str	r2, [r3, #0]
}
 80005e4:	bf00      	nop
 80005e6:	370c      	adds	r7, #12
 80005e8:	46bd      	mov	sp, r7
 80005ea:	bc80      	pop	{r7}
 80005ec:	4770      	bx	lr

080005ee <I2C_GetFlagStatus>:
 *
 * @Note			-
 *
 *************************************************************************************************/
uint8_t I2C_GetFlagStatus(I2C_RegDef_t *pI2Cx , uint32_t FlagName)
{
 80005ee:	b480      	push	{r7}
 80005f0:	b083      	sub	sp, #12
 80005f2:	af00      	add	r7, sp, #0
 80005f4:	6078      	str	r0, [r7, #4]
 80005f6:	6039      	str	r1, [r7, #0]
	if((pI2Cx->SR1 & FlagName) || (pI2Cx->SR2 & FlagName))
 80005f8:	687b      	ldr	r3, [r7, #4]
 80005fa:	695a      	ldr	r2, [r3, #20]
 80005fc:	683b      	ldr	r3, [r7, #0]
 80005fe:	4013      	ands	r3, r2
 8000600:	2b00      	cmp	r3, #0
 8000602:	d105      	bne.n	8000610 <I2C_GetFlagStatus+0x22>
 8000604:	687b      	ldr	r3, [r7, #4]
 8000606:	699a      	ldr	r2, [r3, #24]
 8000608:	683b      	ldr	r3, [r7, #0]
 800060a:	4013      	ands	r3, r2
 800060c:	2b00      	cmp	r3, #0
 800060e:	d001      	beq.n	8000614 <I2C_GetFlagStatus+0x26>
	{
		return FLAG_SET;
 8000610:	2301      	movs	r3, #1
 8000612:	e000      	b.n	8000616 <I2C_GetFlagStatus+0x28>
	}
	return FLAG_RESET;
 8000614:	2300      	movs	r3, #0
}
 8000616:	4618      	mov	r0, r3
 8000618:	370c      	adds	r7, #12
 800061a:	46bd      	mov	sp, r7
 800061c:	bc80      	pop	{r7}
 800061e:	4770      	bx	lr

08000620 <I2C_MasterSendData>:
 *
 * @Note			-
 *
 *************************************************************************************************/
void I2C_MasterSendData(I2C_Handle_t *pI2CHandle, uint8_t *TxBuffer, uint8_t len, uint8_t SlaveAddr, uint8_t Sr)
{
 8000620:	b580      	push	{r7, lr}
 8000622:	b086      	sub	sp, #24
 8000624:	af00      	add	r7, sp, #0
 8000626:	60f8      	str	r0, [r7, #12]
 8000628:	60b9      	str	r1, [r7, #8]
 800062a:	4611      	mov	r1, r2
 800062c:	461a      	mov	r2, r3
 800062e:	460b      	mov	r3, r1
 8000630:	71fb      	strb	r3, [r7, #7]
 8000632:	4613      	mov	r3, r2
 8000634:	71bb      	strb	r3, [r7, #6]
	uint32_t temp;
	// 1. Generate the start condition
	pI2CHandle->pI2Cx->CR1 |= (1 << I2C_CR1_START);
 8000636:	68fb      	ldr	r3, [r7, #12]
 8000638:	689b      	ldr	r3, [r3, #8]
 800063a:	681a      	ldr	r2, [r3, #0]
 800063c:	68fb      	ldr	r3, [r7, #12]
 800063e:	689b      	ldr	r3, [r3, #8]
 8000640:	f442 7280 	orr.w	r2, r2, #256	@ 0x100
 8000644:	601a      	str	r2, [r3, #0]

	// 2. Check if the start bit is set and then Read the SR1 register to clear the start bit
	while(!(I2C_GetFlagStatus(pI2CHandle->pI2Cx,I2C_SR1_SB) == FLAG_SET));
 8000646:	bf00      	nop
 8000648:	68fb      	ldr	r3, [r7, #12]
 800064a:	689b      	ldr	r3, [r3, #8]
 800064c:	2100      	movs	r1, #0
 800064e:	4618      	mov	r0, r3
 8000650:	f7ff ffcd 	bl	80005ee <I2C_GetFlagStatus>
 8000654:	4603      	mov	r3, r0
 8000656:	2b01      	cmp	r3, #1
 8000658:	d1f6      	bne.n	8000648 <I2C_MasterSendData+0x28>
	//uint32_t temp = pI2CHandle->pI2Cx->SR1;

	// 3. Send the address of slave with transmission byte (0)
	SlaveAddr = SlaveAddr << 1;
 800065a:	79bb      	ldrb	r3, [r7, #6]
 800065c:	005b      	lsls	r3, r3, #1
 800065e:	71bb      	strb	r3, [r7, #6]
	SlaveAddr &= ~(1);
 8000660:	79bb      	ldrb	r3, [r7, #6]
 8000662:	f023 0301 	bic.w	r3, r3, #1
 8000666:	71bb      	strb	r3, [r7, #6]
	pI2CHandle->pI2Cx->DR = SlaveAddr;
 8000668:	68fb      	ldr	r3, [r7, #12]
 800066a:	689b      	ldr	r3, [r3, #8]
 800066c:	79ba      	ldrb	r2, [r7, #6]
 800066e:	611a      	str	r2, [r3, #16]

	// 4. ADDR bit is set if it receives an ACK
	if(I2C_GetFlagStatus(pI2CHandle->pI2Cx,(1 << I2C_SR1_ADDR)))
 8000670:	68fb      	ldr	r3, [r7, #12]
 8000672:	689b      	ldr	r3, [r3, #8]
 8000674:	2102      	movs	r1, #2
 8000676:	4618      	mov	r0, r3
 8000678:	f7ff ffb9 	bl	80005ee <I2C_GetFlagStatus>
 800067c:	4603      	mov	r3, r0
 800067e:	2b00      	cmp	r3, #0
 8000680:	d01c      	beq.n	80006bc <I2C_MasterSendData+0x9c>
	{
		// The ADDR bit is set which means that the master received an ack. Now we should reset this ADDR bit
		// read SR1 and SR2 to clear this bit
		temp = pI2CHandle->pI2Cx->SR1;
 8000682:	68fb      	ldr	r3, [r7, #12]
 8000684:	689b      	ldr	r3, [r3, #8]
 8000686:	695b      	ldr	r3, [r3, #20]
 8000688:	617b      	str	r3, [r7, #20]
		temp = pI2CHandle->pI2Cx->SR2;
 800068a:	68fb      	ldr	r3, [r7, #12]
 800068c:	689b      	ldr	r3, [r3, #8]
 800068e:	699b      	ldr	r3, [r3, #24]
 8000690:	617b      	str	r3, [r7, #20]
		(void)temp;
	}

	// 5. Send data till len becomes zero. We don't have to check for ack every time as it is handled by the hardware
	while(len)
 8000692:	e013      	b.n	80006bc <I2C_MasterSendData+0x9c>
	{
		// wait till Txe is 1 indicating that DR is empty and ready to be filled with data
		while(!(I2C_GetFlagStatus(pI2CHandle->pI2Cx,(1 << I2C_SR1_TxE))))
		{
			pI2CHandle->pI2Cx->DR = *TxBuffer;
 8000694:	68bb      	ldr	r3, [r7, #8]
 8000696:	781a      	ldrb	r2, [r3, #0]
 8000698:	68fb      	ldr	r3, [r7, #12]
 800069a:	689b      	ldr	r3, [r3, #8]
 800069c:	611a      	str	r2, [r3, #16]
			TxBuffer++;
 800069e:	68bb      	ldr	r3, [r7, #8]
 80006a0:	3301      	adds	r3, #1
 80006a2:	60bb      	str	r3, [r7, #8]
			len--;
 80006a4:	79fb      	ldrb	r3, [r7, #7]
 80006a6:	3b01      	subs	r3, #1
 80006a8:	71fb      	strb	r3, [r7, #7]
		while(!(I2C_GetFlagStatus(pI2CHandle->pI2Cx,(1 << I2C_SR1_TxE))))
 80006aa:	68fb      	ldr	r3, [r7, #12]
 80006ac:	689b      	ldr	r3, [r3, #8]
 80006ae:	2180      	movs	r1, #128	@ 0x80
 80006b0:	4618      	mov	r0, r3
 80006b2:	f7ff ff9c 	bl	80005ee <I2C_GetFlagStatus>
 80006b6:	4603      	mov	r3, r0
 80006b8:	2b00      	cmp	r3, #0
 80006ba:	d0eb      	beq.n	8000694 <I2C_MasterSendData+0x74>
	while(len)
 80006bc:	79fb      	ldrb	r3, [r7, #7]
 80006be:	2b00      	cmp	r3, #0
 80006c0:	d1f3      	bne.n	80006aa <I2C_MasterSendData+0x8a>
		}
	}

	// 6. Close the communication
	// 6.1 wait for Txe = 1 and BTF = 1 before generating the stop condition
	while(!(I2C_GetFlagStatus(pI2CHandle->pI2Cx,(1 << I2C_SR1_TxE))));
 80006c2:	bf00      	nop
 80006c4:	68fb      	ldr	r3, [r7, #12]
 80006c6:	689b      	ldr	r3, [r3, #8]
 80006c8:	2180      	movs	r1, #128	@ 0x80
 80006ca:	4618      	mov	r0, r3
 80006cc:	f7ff ff8f 	bl	80005ee <I2C_GetFlagStatus>
 80006d0:	4603      	mov	r3, r0
 80006d2:	2b00      	cmp	r3, #0
 80006d4:	d0f6      	beq.n	80006c4 <I2C_MasterSendData+0xa4>
	while(!(I2C_GetFlagStatus(pI2CHandle->pI2Cx,(1 << I2C_SR1_BTF))));
 80006d6:	bf00      	nop
 80006d8:	68fb      	ldr	r3, [r7, #12]
 80006da:	689b      	ldr	r3, [r3, #8]
 80006dc:	2104      	movs	r1, #4
 80006de:	4618      	mov	r0, r3
 80006e0:	f7ff ff85 	bl	80005ee <I2C_GetFlagStatus>
 80006e4:	4603      	mov	r3, r0
 80006e6:	2b00      	cmp	r3, #0
 80006e8:	d0f6      	beq.n	80006d8 <I2C_MasterSendData+0xb8>

	// 6.2 Generate the stop condition (if repeated start isn't enabled)
	if(Sr == I2C_NO_SR)
 80006ea:	f897 3020 	ldrb.w	r3, [r7, #32]
 80006ee:	2b00      	cmp	r3, #0
 80006f0:	d107      	bne.n	8000702 <I2C_MasterSendData+0xe2>
		pI2CHandle->pI2Cx->CR1 |= (1 << I2C_CR1_STOP);
 80006f2:	68fb      	ldr	r3, [r7, #12]
 80006f4:	689b      	ldr	r3, [r3, #8]
 80006f6:	681a      	ldr	r2, [r3, #0]
 80006f8:	68fb      	ldr	r3, [r7, #12]
 80006fa:	689b      	ldr	r3, [r3, #8]
 80006fc:	f442 7200 	orr.w	r2, r2, #512	@ 0x200
 8000700:	601a      	str	r2, [r3, #0]
}
 8000702:	bf00      	nop
 8000704:	3718      	adds	r7, #24
 8000706:	46bd      	mov	sp, r7
 8000708:	bd80      	pop	{r7, pc}

0800070a <I2C_MasterReceiveData>:
/*
 * I2C send and receive data
 */

void I2C_MasterReceiveData(I2C_Handle_t *pI2CHandle, uint8_t *RxBuffer, uint8_t len, uint8_t SlaveAddr, uint8_t Sr)
{
 800070a:	b580      	push	{r7, lr}
 800070c:	b086      	sub	sp, #24
 800070e:	af00      	add	r7, sp, #0
 8000710:	60f8      	str	r0, [r7, #12]
 8000712:	60b9      	str	r1, [r7, #8]
 8000714:	4611      	mov	r1, r2
 8000716:	461a      	mov	r2, r3
 8000718:	460b      	mov	r3, r1
 800071a:	71fb      	strb	r3, [r7, #7]
 800071c:	4613      	mov	r3, r2
 800071e:	71bb      	strb	r3, [r7, #6]
	uint32_t temp;
	// 1. Initiate the start condition
	pI2CHandle->pI2Cx->CR1 |= (1 << I2C_CR1_START);
 8000720:	68fb      	ldr	r3, [r7, #12]
 8000722:	689b      	ldr	r3, [r3, #8]
 8000724:	681a      	ldr	r2, [r3, #0]
 8000726:	68fb      	ldr	r3, [r7, #12]
 8000728:	689b      	ldr	r3, [r3, #8]
 800072a:	f442 7280 	orr.w	r2, r2, #256	@ 0x100
 800072e:	601a      	str	r2, [r3, #0]

	// 2. Confirm if the start bit is set
	while(!(I2C_GetFlagStatus(pI2CHandle->pI2Cx,I2C_SR1_SB)));
 8000730:	bf00      	nop
 8000732:	68fb      	ldr	r3, [r7, #12]
 8000734:	689b      	ldr	r3, [r3, #8]
 8000736:	2100      	movs	r1, #0
 8000738:	4618      	mov	r0, r3
 800073a:	f7ff ff58 	bl	80005ee <I2C_GetFlagStatus>
 800073e:	4603      	mov	r3, r0
 8000740:	2b00      	cmp	r3, #0
 8000742:	d0f6      	beq.n	8000732 <I2C_MasterReceiveData+0x28>

	// 3. Send Address bit
	SlaveAddr = SlaveAddr << 1;
 8000744:	79bb      	ldrb	r3, [r7, #6]
 8000746:	005b      	lsls	r3, r3, #1
 8000748:	71bb      	strb	r3, [r7, #6]
	SlaveAddr |= 1;
 800074a:	79bb      	ldrb	r3, [r7, #6]
 800074c:	f043 0301 	orr.w	r3, r3, #1
 8000750:	71bb      	strb	r3, [r7, #6]
	pI2CHandle->pI2Cx->DR = SlaveAddr;
 8000752:	68fb      	ldr	r3, [r7, #12]
 8000754:	689b      	ldr	r3, [r3, #8]
 8000756:	79ba      	ldrb	r2, [r7, #6]
 8000758:	611a      	str	r2, [r3, #16]

	// 4. check if the ADDR flag is set. Wait until its set
	while(!(I2C_GetFlagStatus(pI2CHandle->pI2Cx,(1 << I2C_SR1_ADDR))));
 800075a:	bf00      	nop
 800075c:	68fb      	ldr	r3, [r7, #12]
 800075e:	689b      	ldr	r3, [r3, #8]
 8000760:	2102      	movs	r1, #2
 8000762:	4618      	mov	r0, r3
 8000764:	f7ff ff43 	bl	80005ee <I2C_GetFlagStatus>
 8000768:	4603      	mov	r3, r0
 800076a:	2b00      	cmp	r3, #0
 800076c:	d0f6      	beq.n	800075c <I2C_MasterReceiveData+0x52>

	// 5. Send data. If len = 1 or if len > 1
	if(len == 1)
 800076e:	79fb      	ldrb	r3, [r7, #7]
 8000770:	2b01      	cmp	r3, #1
 8000772:	d131      	bne.n	80007d8 <I2C_MasterReceiveData+0xce>
	{
		// a. Disable ack
		pI2CHandle->pI2Cx->CR1 &= ~(1 << I2C_CR1_ACK);
 8000774:	68fb      	ldr	r3, [r7, #12]
 8000776:	689b      	ldr	r3, [r3, #8]
 8000778:	681a      	ldr	r2, [r3, #0]
 800077a:	68fb      	ldr	r3, [r7, #12]
 800077c:	689b      	ldr	r3, [r3, #8]
 800077e:	f422 6280 	bic.w	r2, r2, #1024	@ 0x400
 8000782:	601a      	str	r2, [r3, #0]

		// c. clear addr bit. Read SR1 followed by SR2
		temp = pI2CHandle->pI2Cx->SR1;
 8000784:	68fb      	ldr	r3, [r7, #12]
 8000786:	689b      	ldr	r3, [r3, #8]
 8000788:	695b      	ldr	r3, [r3, #20]
 800078a:	617b      	str	r3, [r7, #20]
		temp = pI2CHandle->pI2Cx->SR2;
 800078c:	68fb      	ldr	r3, [r7, #12]
 800078e:	689b      	ldr	r3, [r3, #8]
 8000790:	699b      	ldr	r3, [r3, #24]
 8000792:	617b      	str	r3, [r7, #20]
		(void)temp;

		// d. wait till RXNE is set
		while(!I2C_GetFlagStatus(pI2CHandle->pI2Cx, (1 << I2C_SR1_RxNE)));
 8000794:	bf00      	nop
 8000796:	68fb      	ldr	r3, [r7, #12]
 8000798:	689b      	ldr	r3, [r3, #8]
 800079a:	2140      	movs	r1, #64	@ 0x40
 800079c:	4618      	mov	r0, r3
 800079e:	f7ff ff26 	bl	80005ee <I2C_GetFlagStatus>
 80007a2:	4603      	mov	r3, r0
 80007a4:	2b00      	cmp	r3, #0
 80007a6:	d0f6      	beq.n	8000796 <I2C_MasterReceiveData+0x8c>

		// b. send stop condition if repeated start is disabled
		if(Sr == I2C_NO_SR)
 80007a8:	f897 3020 	ldrb.w	r3, [r7, #32]
 80007ac:	2b00      	cmp	r3, #0
 80007ae:	d107      	bne.n	80007c0 <I2C_MasterReceiveData+0xb6>
			pI2CHandle->pI2Cx->CR1 |= (1 << I2C_CR1_STOP);
 80007b0:	68fb      	ldr	r3, [r7, #12]
 80007b2:	689b      	ldr	r3, [r3, #8]
 80007b4:	681a      	ldr	r2, [r3, #0]
 80007b6:	68fb      	ldr	r3, [r7, #12]
 80007b8:	689b      	ldr	r3, [r3, #8]
 80007ba:	f442 7200 	orr.w	r2, r2, #512	@ 0x200
 80007be:	601a      	str	r2, [r3, #0]

		// e. Read the data from the data register
		*RxBuffer = pI2CHandle->pI2Cx->DR;
 80007c0:	68fb      	ldr	r3, [r7, #12]
 80007c2:	689b      	ldr	r3, [r3, #8]
 80007c4:	691b      	ldr	r3, [r3, #16]
 80007c6:	b2da      	uxtb	r2, r3
 80007c8:	68bb      	ldr	r3, [r7, #8]
 80007ca:	701a      	strb	r2, [r3, #0]
		RxBuffer++;
 80007cc:	68bb      	ldr	r3, [r7, #8]
 80007ce:	3301      	adds	r3, #1
 80007d0:	60bb      	str	r3, [r7, #8]
		len--;
 80007d2:	79fb      	ldrb	r3, [r7, #7]
 80007d4:	3b01      	subs	r3, #1
 80007d6:	71fb      	strb	r3, [r7, #7]
	}
	if(len > 1 )
 80007d8:	79fb      	ldrb	r3, [r7, #7]
 80007da:	2b01      	cmp	r3, #1
 80007dc:	d938      	bls.n	8000850 <I2C_MasterReceiveData+0x146>
	{
		// a. clear the address bit
		temp = pI2CHandle->pI2Cx->SR1;
 80007de:	68fb      	ldr	r3, [r7, #12]
 80007e0:	689b      	ldr	r3, [r3, #8]
 80007e2:	695b      	ldr	r3, [r3, #20]
 80007e4:	617b      	str	r3, [r7, #20]
		temp = pI2CHandle->pI2Cx->SR2;
 80007e6:	68fb      	ldr	r3, [r7, #12]
 80007e8:	689b      	ldr	r3, [r3, #8]
 80007ea:	699b      	ldr	r3, [r3, #24]
 80007ec:	617b      	str	r3, [r7, #20]
		(void)temp;

		// b. receive data
		while(len > 0)
 80007ee:	e02c      	b.n	800084a <I2C_MasterReceiveData+0x140>
		{
			// d. wait till RXNE becomes 1
			while(!I2C_GetFlagStatus(pI2CHandle->pI2Cx, (1 << I2C_SR1_RxNE)));
 80007f0:	bf00      	nop
 80007f2:	68fb      	ldr	r3, [r7, #12]
 80007f4:	689b      	ldr	r3, [r3, #8]
 80007f6:	2140      	movs	r1, #64	@ 0x40
 80007f8:	4618      	mov	r0, r3
 80007fa:	f7ff fef8 	bl	80005ee <I2C_GetFlagStatus>
 80007fe:	4603      	mov	r3, r0
 8000800:	2b00      	cmp	r3, #0
 8000802:	d0f6      	beq.n	80007f2 <I2C_MasterReceiveData+0xe8>

			if(len == 2)
 8000804:	79fb      	ldrb	r3, [r7, #7]
 8000806:	2b02      	cmp	r3, #2
 8000808:	d113      	bne.n	8000832 <I2C_MasterReceiveData+0x128>
			{
				// c. when len == 2,
				// c.1 clear ACK
				pI2CHandle->pI2Cx->CR1 &= ~(1 << I2C_CR1_ACK);
 800080a:	68fb      	ldr	r3, [r7, #12]
 800080c:	689b      	ldr	r3, [r3, #8]
 800080e:	681a      	ldr	r2, [r3, #0]
 8000810:	68fb      	ldr	r3, [r7, #12]
 8000812:	689b      	ldr	r3, [r3, #8]
 8000814:	f422 6280 	bic.w	r2, r2, #1024	@ 0x400
 8000818:	601a      	str	r2, [r3, #0]

				// c.2 set STOP condition if repeated start is disabled
				if(Sr == I2C_NO_SR)
 800081a:	f897 3020 	ldrb.w	r3, [r7, #32]
 800081e:	2b00      	cmp	r3, #0
 8000820:	d107      	bne.n	8000832 <I2C_MasterReceiveData+0x128>
					pI2CHandle->pI2Cx->CR1 |= (1 << I2C_CR1_STOP);
 8000822:	68fb      	ldr	r3, [r7, #12]
 8000824:	689b      	ldr	r3, [r3, #8]
 8000826:	681a      	ldr	r2, [r3, #0]
 8000828:	68fb      	ldr	r3, [r7, #12]
 800082a:	689b      	ldr	r3, [r3, #8]
 800082c:	f442 7200 	orr.w	r2, r2, #512	@ 0x200
 8000830:	601a      	str	r2, [r3, #0]
			}

			*RxBuffer = pI2CHandle->pI2Cx->DR;
 8000832:	68fb      	ldr	r3, [r7, #12]
 8000834:	689b      	ldr	r3, [r3, #8]
 8000836:	691b      	ldr	r3, [r3, #16]
 8000838:	b2da      	uxtb	r2, r3
 800083a:	68bb      	ldr	r3, [r7, #8]
 800083c:	701a      	strb	r2, [r3, #0]

			len--;
 800083e:	79fb      	ldrb	r3, [r7, #7]
 8000840:	3b01      	subs	r3, #1
 8000842:	71fb      	strb	r3, [r7, #7]
			RxBuffer++;
 8000844:	68bb      	ldr	r3, [r7, #8]
 8000846:	3301      	adds	r3, #1
 8000848:	60bb      	str	r3, [r7, #8]
		while(len > 0)
 800084a:	79fb      	ldrb	r3, [r7, #7]
 800084c:	2b00      	cmp	r3, #0
 800084e:	d1cf      	bne.n	80007f0 <I2C_MasterReceiveData+0xe6>
		}

	}

	// 7. Renable acking
	if(pI2CHandle->I2C_Config.I2C_ACKControl == I2C_ACKCTRL_ACK_EN)
 8000850:	68fb      	ldr	r3, [r7, #12]
 8000852:	795b      	ldrb	r3, [r3, #5]
 8000854:	2b01      	cmp	r3, #1
 8000856:	d107      	bne.n	8000868 <I2C_MasterReceiveData+0x15e>
		pI2CHandle->pI2Cx->CR1 |= (1 << I2C_CR1_ACK);
 8000858:	68fb      	ldr	r3, [r7, #12]
 800085a:	689b      	ldr	r3, [r3, #8]
 800085c:	681a      	ldr	r2, [r3, #0]
 800085e:	68fb      	ldr	r3, [r7, #12]
 8000860:	689b      	ldr	r3, [r3, #8]
 8000862:	f442 6280 	orr.w	r2, r2, #1024	@ 0x400
 8000866:	601a      	str	r2, [r3, #0]

}
 8000868:	bf00      	nop
 800086a:	3718      	adds	r7, #24
 800086c:	46bd      	mov	sp, r7
 800086e:	bd80      	pop	{r7, pc}

08000870 <GPIO_ClockControl>:
 *
 * @Note			-
 *
 *************************************************************************************************/
void GPIO_ClockControl(GPIO_RegDef_t *pGPIOx, uint8_t EnorDi)
{
 8000870:	b480      	push	{r7}
 8000872:	b083      	sub	sp, #12
 8000874:	af00      	add	r7, sp, #0
 8000876:	6078      	str	r0, [r7, #4]
 8000878:	460b      	mov	r3, r1
 800087a:	70fb      	strb	r3, [r7, #3]
	if(EnorDi == ENABLE)
 800087c:	78fb      	ldrb	r3, [r7, #3]
 800087e:	2b01      	cmp	r3, #1
 8000880:	d162      	bne.n	8000948 <GPIO_ClockControl+0xd8>
	{
		if(pGPIOx == GPIOA)
 8000882:	687b      	ldr	r3, [r7, #4]
 8000884:	4a64      	ldr	r2, [pc, #400]	@ (8000a18 <GPIO_ClockControl+0x1a8>)
 8000886:	4293      	cmp	r3, r2
 8000888:	d106      	bne.n	8000898 <GPIO_ClockControl+0x28>
		{
			GPIOA_CLK_EN();
 800088a:	4b64      	ldr	r3, [pc, #400]	@ (8000a1c <GPIO_ClockControl+0x1ac>)
 800088c:	6b1b      	ldr	r3, [r3, #48]	@ 0x30
 800088e:	4a63      	ldr	r2, [pc, #396]	@ (8000a1c <GPIO_ClockControl+0x1ac>)
 8000890:	f043 0301 	orr.w	r3, r3, #1
 8000894:	6313      	str	r3, [r2, #48]	@ 0x30
		else if(pGPIOx == GPIOI)
		{
			GPIOI_CLK_DI();
		}
	}
}
 8000896:	e0b9      	b.n	8000a0c <GPIO_ClockControl+0x19c>
		else if(pGPIOx == GPIOB)
 8000898:	687b      	ldr	r3, [r7, #4]
 800089a:	4a61      	ldr	r2, [pc, #388]	@ (8000a20 <GPIO_ClockControl+0x1b0>)
 800089c:	4293      	cmp	r3, r2
 800089e:	d106      	bne.n	80008ae <GPIO_ClockControl+0x3e>
			GPIOB_CLK_EN();
 80008a0:	4b5e      	ldr	r3, [pc, #376]	@ (8000a1c <GPIO_ClockControl+0x1ac>)
 80008a2:	6b1b      	ldr	r3, [r3, #48]	@ 0x30
 80008a4:	4a5d      	ldr	r2, [pc, #372]	@ (8000a1c <GPIO_ClockControl+0x1ac>)
 80008a6:	f043 0302 	orr.w	r3, r3, #2
 80008aa:	6313      	str	r3, [r2, #48]	@ 0x30
}
 80008ac:	e0ae      	b.n	8000a0c <GPIO_ClockControl+0x19c>
		else if(pGPIOx == GPIOC)
 80008ae:	687b      	ldr	r3, [r7, #4]
 80008b0:	4a5c      	ldr	r2, [pc, #368]	@ (8000a24 <GPIO_ClockControl+0x1b4>)
 80008b2:	4293      	cmp	r3, r2
 80008b4:	d106      	bne.n	80008c4 <GPIO_ClockControl+0x54>
			GPIOC_CLK_EN();
 80008b6:	4b59      	ldr	r3, [pc, #356]	@ (8000a1c <GPIO_ClockControl+0x1ac>)
 80008b8:	6b1b      	ldr	r3, [r3, #48]	@ 0x30
 80008ba:	4a58      	ldr	r2, [pc, #352]	@ (8000a1c <GPIO_ClockControl+0x1ac>)
 80008bc:	f043 0304 	orr.w	r3, r3, #4
 80008c0:	6313      	str	r3, [r2, #48]	@ 0x30
}
 80008c2:	e0a3      	b.n	8000a0c <GPIO_ClockControl+0x19c>
		else if(pGPIOx == GPIOD)
 80008c4:	687b      	ldr	r3, [r7, #4]
 80008c6:	4a58      	ldr	r2, [pc, #352]	@ (8000a28 <GPIO_ClockControl+0x1b8>)
 80008c8:	4293      	cmp	r3, r2
 80008ca:	d106      	bne.n	80008da <GPIO_ClockControl+0x6a>
			GPIOD_CLK_EN();
 80008cc:	4b53      	ldr	r3, [pc, #332]	@ (8000a1c <GPIO_ClockControl+0x1ac>)
 80008ce:	6b1b      	ldr	r3, [r3, #48]	@ 0x30
 80008d0:	4a52      	ldr	r2, [pc, #328]	@ (8000a1c <GPIO_ClockControl+0x1ac>)
 80008d2:	f043 0308 	orr.w	r3, r3, #8
 80008d6:	6313      	str	r3, [r2, #48]	@ 0x30
}
 80008d8:	e098      	b.n	8000a0c <GPIO_ClockControl+0x19c>
		else if(pGPIOx == GPIOE)
 80008da:	687b      	ldr	r3, [r7, #4]
 80008dc:	4a53      	ldr	r2, [pc, #332]	@ (8000a2c <GPIO_ClockControl+0x1bc>)
 80008de:	4293      	cmp	r3, r2
 80008e0:	d106      	bne.n	80008f0 <GPIO_ClockControl+0x80>
			GPIOE_CLK_EN();
 80008e2:	4b4e      	ldr	r3, [pc, #312]	@ (8000a1c <GPIO_ClockControl+0x1ac>)
 80008e4:	6b1b      	ldr	r3, [r3, #48]	@ 0x30
 80008e6:	4a4d      	ldr	r2, [pc, #308]	@ (8000a1c <GPIO_ClockControl+0x1ac>)
 80008e8:	f043 0310 	orr.w	r3, r3, #16
 80008ec:	6313      	str	r3, [r2, #48]	@ 0x30
}
 80008ee:	e08d      	b.n	8000a0c <GPIO_ClockControl+0x19c>
		else if(pGPIOx == GPIOF)
 80008f0:	687b      	ldr	r3, [r7, #4]
 80008f2:	4a4f      	ldr	r2, [pc, #316]	@ (8000a30 <GPIO_ClockControl+0x1c0>)
 80008f4:	4293      	cmp	r3, r2
 80008f6:	d106      	bne.n	8000906 <GPIO_ClockControl+0x96>
			GPIOF_CLK_EN();
 80008f8:	4b48      	ldr	r3, [pc, #288]	@ (8000a1c <GPIO_ClockControl+0x1ac>)
 80008fa:	6b1b      	ldr	r3, [r3, #48]	@ 0x30
 80008fc:	4a47      	ldr	r2, [pc, #284]	@ (8000a1c <GPIO_ClockControl+0x1ac>)
 80008fe:	f043 0320 	orr.w	r3, r3, #32
 8000902:	6313      	str	r3, [r2, #48]	@ 0x30
}
 8000904:	e082      	b.n	8000a0c <GPIO_ClockControl+0x19c>
		else if(pGPIOx == GPIOG)
 8000906:	687b      	ldr	r3, [r7, #4]
 8000908:	4a4a      	ldr	r2, [pc, #296]	@ (8000a34 <GPIO_ClockControl+0x1c4>)
 800090a:	4293      	cmp	r3, r2
 800090c:	d106      	bne.n	800091c <GPIO_ClockControl+0xac>
			GPIOG_CLK_EN();
 800090e:	4b43      	ldr	r3, [pc, #268]	@ (8000a1c <GPIO_ClockControl+0x1ac>)
 8000910:	6b1b      	ldr	r3, [r3, #48]	@ 0x30
 8000912:	4a42      	ldr	r2, [pc, #264]	@ (8000a1c <GPIO_ClockControl+0x1ac>)
 8000914:	f043 0340 	orr.w	r3, r3, #64	@ 0x40
 8000918:	6313      	str	r3, [r2, #48]	@ 0x30
}
 800091a:	e077      	b.n	8000a0c <GPIO_ClockControl+0x19c>
		else if(pGPIOx == GPIOH)
 800091c:	687b      	ldr	r3, [r7, #4]
 800091e:	4a46      	ldr	r2, [pc, #280]	@ (8000a38 <GPIO_ClockControl+0x1c8>)
 8000920:	4293      	cmp	r3, r2
 8000922:	d106      	bne.n	8000932 <GPIO_ClockControl+0xc2>
			GPIOH_CLK_EN();
 8000924:	4b3d      	ldr	r3, [pc, #244]	@ (8000a1c <GPIO_ClockControl+0x1ac>)
 8000926:	6b1b      	ldr	r3, [r3, #48]	@ 0x30
 8000928:	4a3c      	ldr	r2, [pc, #240]	@ (8000a1c <GPIO_ClockControl+0x1ac>)
 800092a:	f043 0380 	orr.w	r3, r3, #128	@ 0x80
 800092e:	6313      	str	r3, [r2, #48]	@ 0x30
}
 8000930:	e06c      	b.n	8000a0c <GPIO_ClockControl+0x19c>
		else if(pGPIOx == GPIOI)
 8000932:	687b      	ldr	r3, [r7, #4]
 8000934:	4a41      	ldr	r2, [pc, #260]	@ (8000a3c <GPIO_ClockControl+0x1cc>)
 8000936:	4293      	cmp	r3, r2
 8000938:	d168      	bne.n	8000a0c <GPIO_ClockControl+0x19c>
			GPIOI_CLK_EN();
 800093a:	4b38      	ldr	r3, [pc, #224]	@ (8000a1c <GPIO_ClockControl+0x1ac>)
 800093c:	6b1b      	ldr	r3, [r3, #48]	@ 0x30
 800093e:	4a37      	ldr	r2, [pc, #220]	@ (8000a1c <GPIO_ClockControl+0x1ac>)
 8000940:	f443 7380 	orr.w	r3, r3, #256	@ 0x100
 8000944:	6313      	str	r3, [r2, #48]	@ 0x30
}
 8000946:	e061      	b.n	8000a0c <GPIO_ClockControl+0x19c>
		if(pGPIOx == GPIOA)
 8000948:	687b      	ldr	r3, [r7, #4]
 800094a:	4a33      	ldr	r2, [pc, #204]	@ (8000a18 <GPIO_ClockControl+0x1a8>)
 800094c:	4293      	cmp	r3, r2
 800094e:	d106      	bne.n	800095e <GPIO_ClockControl+0xee>
			GPIOA_CLK_DI();
 8000950:	4b32      	ldr	r3, [pc, #200]	@ (8000a1c <GPIO_ClockControl+0x1ac>)
 8000952:	6b1b      	ldr	r3, [r3, #48]	@ 0x30
 8000954:	4a31      	ldr	r2, [pc, #196]	@ (8000a1c <GPIO_ClockControl+0x1ac>)
 8000956:	f043 0301 	orr.w	r3, r3, #1
 800095a:	6313      	str	r3, [r2, #48]	@ 0x30
}
 800095c:	e056      	b.n	8000a0c <GPIO_ClockControl+0x19c>
		else if(pGPIOx == GPIOB)
 800095e:	687b      	ldr	r3, [r7, #4]
 8000960:	4a2f      	ldr	r2, [pc, #188]	@ (8000a20 <GPIO_ClockControl+0x1b0>)
 8000962:	4293      	cmp	r3, r2
 8000964:	d106      	bne.n	8000974 <GPIO_ClockControl+0x104>
			GPIOB_CLK_DI();
 8000966:	4b2d      	ldr	r3, [pc, #180]	@ (8000a1c <GPIO_ClockControl+0x1ac>)
 8000968:	6b1b      	ldr	r3, [r3, #48]	@ 0x30
 800096a:	4a2c      	ldr	r2, [pc, #176]	@ (8000a1c <GPIO_ClockControl+0x1ac>)
 800096c:	f043 0302 	orr.w	r3, r3, #2
 8000970:	6313      	str	r3, [r2, #48]	@ 0x30
}
 8000972:	e04b      	b.n	8000a0c <GPIO_ClockControl+0x19c>
		else if(pGPIOx == GPIOC)
 8000974:	687b      	ldr	r3, [r7, #4]
 8000976:	4a2b      	ldr	r2, [pc, #172]	@ (8000a24 <GPIO_ClockControl+0x1b4>)
 8000978:	4293      	cmp	r3, r2
 800097a:	d106      	bne.n	800098a <GPIO_ClockControl+0x11a>
			GPIOC_CLK_DI();
 800097c:	4b27      	ldr	r3, [pc, #156]	@ (8000a1c <GPIO_ClockControl+0x1ac>)
 800097e:	6b1b      	ldr	r3, [r3, #48]	@ 0x30
 8000980:	4a26      	ldr	r2, [pc, #152]	@ (8000a1c <GPIO_ClockControl+0x1ac>)
 8000982:	f043 0304 	orr.w	r3, r3, #4
 8000986:	6313      	str	r3, [r2, #48]	@ 0x30
}
 8000988:	e040      	b.n	8000a0c <GPIO_ClockControl+0x19c>
		else if(pGPIOx == GPIOD)
 800098a:	687b      	ldr	r3, [r7, #4]
 800098c:	4a26      	ldr	r2, [pc, #152]	@ (8000a28 <GPIO_ClockControl+0x1b8>)
 800098e:	4293      	cmp	r3, r2
 8000990:	d106      	bne.n	80009a0 <GPIO_ClockControl+0x130>
			GPIOD_CLK_DI();
 8000992:	4b22      	ldr	r3, [pc, #136]	@ (8000a1c <GPIO_ClockControl+0x1ac>)
 8000994:	6b1b      	ldr	r3, [r3, #48]	@ 0x30
 8000996:	4a21      	ldr	r2, [pc, #132]	@ (8000a1c <GPIO_ClockControl+0x1ac>)
 8000998:	f043 0308 	orr.w	r3, r3, #8
 800099c:	6313      	str	r3, [r2, #48]	@ 0x30
}
 800099e:	e035      	b.n	8000a0c <GPIO_ClockControl+0x19c>
		else if(pGPIOx == GPIOE)
 80009a0:	687b      	ldr	r3, [r7, #4]
 80009a2:	4a22      	ldr	r2, [pc, #136]	@ (8000a2c <GPIO_ClockControl+0x1bc>)
 80009a4:	4293      	cmp	r3, r2
 80009a6:	d106      	bne.n	80009b6 <GPIO_ClockControl+0x146>
			GPIOE_CLK_DI();
 80009a8:	4b1c      	ldr	r3, [pc, #112]	@ (8000a1c <GPIO_ClockControl+0x1ac>)
 80009aa:	6b1b      	ldr	r3, [r3, #48]	@ 0x30
 80009ac:	4a1b      	ldr	r2, [pc, #108]	@ (8000a1c <GPIO_ClockControl+0x1ac>)
 80009ae:	f043 0310 	orr.w	r3, r3, #16
 80009b2:	6313      	str	r3, [r2, #48]	@ 0x30
}
 80009b4:	e02a      	b.n	8000a0c <GPIO_ClockControl+0x19c>
		else if(pGPIOx == GPIOF)
 80009b6:	687b      	ldr	r3, [r7, #4]
 80009b8:	4a1d      	ldr	r2, [pc, #116]	@ (8000a30 <GPIO_ClockControl+0x1c0>)
 80009ba:	4293      	cmp	r3, r2
 80009bc:	d106      	bne.n	80009cc <GPIO_ClockControl+0x15c>
			GPIOF_CLK_DI();
 80009be:	4b17      	ldr	r3, [pc, #92]	@ (8000a1c <GPIO_ClockControl+0x1ac>)
 80009c0:	6b1b      	ldr	r3, [r3, #48]	@ 0x30
 80009c2:	4a16      	ldr	r2, [pc, #88]	@ (8000a1c <GPIO_ClockControl+0x1ac>)
 80009c4:	f043 0320 	orr.w	r3, r3, #32
 80009c8:	6313      	str	r3, [r2, #48]	@ 0x30
}
 80009ca:	e01f      	b.n	8000a0c <GPIO_ClockControl+0x19c>
		else if(pGPIOx == GPIOG)
 80009cc:	687b      	ldr	r3, [r7, #4]
 80009ce:	4a19      	ldr	r2, [pc, #100]	@ (8000a34 <GPIO_ClockControl+0x1c4>)
 80009d0:	4293      	cmp	r3, r2
 80009d2:	d106      	bne.n	80009e2 <GPIO_ClockControl+0x172>
			GPIOG_CLK_DI();
 80009d4:	4b11      	ldr	r3, [pc, #68]	@ (8000a1c <GPIO_ClockControl+0x1ac>)
 80009d6:	6b1b      	ldr	r3, [r3, #48]	@ 0x30
 80009d8:	4a10      	ldr	r2, [pc, #64]	@ (8000a1c <GPIO_ClockControl+0x1ac>)
 80009da:	f043 0340 	orr.w	r3, r3, #64	@ 0x40
 80009de:	6313      	str	r3, [r2, #48]	@ 0x30
}
 80009e0:	e014      	b.n	8000a0c <GPIO_ClockControl+0x19c>
		else if(pGPIOx == GPIOH)
 80009e2:	687b      	ldr	r3, [r7, #4]
 80009e4:	4a14      	ldr	r2, [pc, #80]	@ (8000a38 <GPIO_ClockControl+0x1c8>)
 80009e6:	4293      	cmp	r3, r2
 80009e8:	d106      	bne.n	80009f8 <GPIO_ClockControl+0x188>
			GPIOH_CLK_DI();
 80009ea:	4b0c      	ldr	r3, [pc, #48]	@ (8000a1c <GPIO_ClockControl+0x1ac>)
 80009ec:	6b1b      	ldr	r3, [r3, #48]	@ 0x30
 80009ee:	4a0b      	ldr	r2, [pc, #44]	@ (8000a1c <GPIO_ClockControl+0x1ac>)
 80009f0:	f043 0380 	orr.w	r3, r3, #128	@ 0x80
 80009f4:	6313      	str	r3, [r2, #48]	@ 0x30
}
 80009f6:	e009      	b.n	8000a0c <GPIO_ClockControl+0x19c>
		else if(pGPIOx == GPIOI)
 80009f8:	687b      	ldr	r3, [r7, #4]
 80009fa:	4a10      	ldr	r2, [pc, #64]	@ (8000a3c <GPIO_ClockControl+0x1cc>)
 80009fc:	4293      	cmp	r3, r2
 80009fe:	d105      	bne.n	8000a0c <GPIO_ClockControl+0x19c>
			GPIOI_CLK_DI();
 8000a00:	4b06      	ldr	r3, [pc, #24]	@ (8000a1c <GPIO_ClockControl+0x1ac>)
 8000a02:	6b1b      	ldr	r3, [r3, #48]	@ 0x30
 8000a04:	4a05      	ldr	r2, [pc, #20]	@ (8000a1c <GPIO_ClockControl+0x1ac>)
 8000a06:	f443 7380 	orr.w	r3, r3, #256	@ 0x100
 8000a0a:	6313      	str	r3, [r2, #48]	@ 0x30
}
 8000a0c:	bf00      	nop
 8000a0e:	370c      	adds	r7, #12
 8000a10:	46bd      	mov	sp, r7
 8000a12:	bc80      	pop	{r7}
 8000a14:	4770      	bx	lr
 8000a16:	bf00      	nop
 8000a18:	40020000 	.word	0x40020000
 8000a1c:	40023800 	.word	0x40023800
 8000a20:	40020400 	.word	0x40020400
 8000a24:	40020800 	.word	0x40020800
 8000a28:	40020c00 	.word	0x40020c00
 8000a2c:	40021000 	.word	0x40021000
 8000a30:	40021400 	.word	0x40021400
 8000a34:	40021800 	.word	0x40021800
 8000a38:	40021c00 	.word	0x40021c00
 8000a3c:	40022000 	.word	0x40022000

08000a40 <GPIO_Init>:
 *
 * @Note			-
 *
 *************************************************************************************************/
void GPIO_Init(GPIO_Handle_t *pGPIOHandle)
{
 8000a40:	b580      	push	{r7, lr}
 8000a42:	b086      	sub	sp, #24
 8000a44:	af00      	add	r7, sp, #0
 8000a46:	6078      	str	r0, [r7, #4]
	// Enable peripheral clock
	GPIO_ClockControl(pGPIOHandle->pGPIOx, ENABLE);
 8000a48:	687b      	ldr	r3, [r7, #4]
 8000a4a:	681b      	ldr	r3, [r3, #0]
 8000a4c:	2101      	movs	r1, #1
 8000a4e:	4618      	mov	r0, r3
 8000a50:	f7ff ff0e 	bl	8000870 <GPIO_ClockControl>

	uint32_t temp = 0;
 8000a54:	2300      	movs	r3, #0
 8000a56:	617b      	str	r3, [r7, #20]
	// 1. Configure the mode of GPIO pin
	if(pGPIOHandle->GPIO_PinConfig.GPIO_PinMode <= GPIO_MODE_ANALOG)
 8000a58:	687b      	ldr	r3, [r7, #4]
 8000a5a:	795b      	ldrb	r3, [r3, #5]
 8000a5c:	2b03      	cmp	r3, #3
 8000a5e:	d820      	bhi.n	8000aa2 <GPIO_Init+0x62>
	{
		// Non interrupt mode
		temp = (pGPIOHandle->GPIO_PinConfig.GPIO_PinMode << (2* pGPIOHandle->GPIO_PinConfig.GPIO_PinNumber));
 8000a60:	687b      	ldr	r3, [r7, #4]
 8000a62:	795b      	ldrb	r3, [r3, #5]
 8000a64:	461a      	mov	r2, r3
 8000a66:	687b      	ldr	r3, [r7, #4]
 8000a68:	791b      	ldrb	r3, [r3, #4]
 8000a6a:	005b      	lsls	r3, r3, #1
 8000a6c:	fa02 f303 	lsl.w	r3, r2, r3
 8000a70:	617b      	str	r3, [r7, #20]
		pGPIOHandle->pGPIOx->MODER &= ~(0x3 << (2*pGPIOHandle->GPIO_PinConfig.GPIO_PinNumber));
 8000a72:	687b      	ldr	r3, [r7, #4]
 8000a74:	681b      	ldr	r3, [r3, #0]
 8000a76:	681a      	ldr	r2, [r3, #0]
 8000a78:	687b      	ldr	r3, [r7, #4]
 8000a7a:	791b      	ldrb	r3, [r3, #4]
 8000a7c:	005b      	lsls	r3, r3, #1
 8000a7e:	2103      	movs	r1, #3
 8000a80:	fa01 f303 	lsl.w	r3, r1, r3
 8000a84:	43db      	mvns	r3, r3
 8000a86:	4619      	mov	r1, r3
 8000a88:	687b      	ldr	r3, [r7, #4]
 8000a8a:	681b      	ldr	r3, [r3, #0]
 8000a8c:	400a      	ands	r2, r1
 8000a8e:	601a      	str	r2, [r3, #0]
		pGPIOHandle->pGPIOx->MODER |= temp;
 8000a90:	687b      	ldr	r3, [r7, #4]
 8000a92:	681b      	ldr	r3, [r3, #0]
 8000a94:	6819      	ldr	r1, [r3, #0]
 8000a96:	687b      	ldr	r3, [r7, #4]
 8000a98:	681b      	ldr	r3, [r3, #0]
 8000a9a:	697a      	ldr	r2, [r7, #20]
 8000a9c:	430a      	orrs	r2, r1
 8000a9e:	601a      	str	r2, [r3, #0]
 8000aa0:	e0c3      	b.n	8000c2a <GPIO_Init+0x1ea>
	}
	else
	{
		pGPIOHandle->pGPIOx->MODER &= ~(0x3 << (2*pGPIOHandle->GPIO_PinConfig.GPIO_PinNumber));
 8000aa2:	687b      	ldr	r3, [r7, #4]
 8000aa4:	681b      	ldr	r3, [r3, #0]
 8000aa6:	681a      	ldr	r2, [r3, #0]
 8000aa8:	687b      	ldr	r3, [r7, #4]
 8000aaa:	791b      	ldrb	r3, [r3, #4]
 8000aac:	005b      	lsls	r3, r3, #1
 8000aae:	2103      	movs	r1, #3
 8000ab0:	fa01 f303 	lsl.w	r3, r1, r3
 8000ab4:	43db      	mvns	r3, r3
 8000ab6:	4619      	mov	r1, r3
 8000ab8:	687b      	ldr	r3, [r7, #4]
 8000aba:	681b      	ldr	r3, [r3, #0]
 8000abc:	400a      	ands	r2, r1
 8000abe:	601a      	str	r2, [r3, #0]
		if(pGPIOHandle->GPIO_PinConfig.GPIO_PinMode == GPIO_MODE_IT_FT)
 8000ac0:	687b      	ldr	r3, [r7, #4]
 8000ac2:	795b      	ldrb	r3, [r3, #5]
 8000ac4:	2b04      	cmp	r3, #4
 8000ac6:	d117      	bne.n	8000af8 <GPIO_Init+0xb8>
		{
			// 1. Configure the FTSR
			// first we clear the corresponding RTSR bit so that we only have FTSR
			EXTI->RTSR &= ~(1 << pGPIOHandle->GPIO_PinConfig.GPIO_PinNumber);
 8000ac8:	4b96      	ldr	r3, [pc, #600]	@ (8000d24 <GPIO_Init+0x2e4>)
 8000aca:	689b      	ldr	r3, [r3, #8]
 8000acc:	687a      	ldr	r2, [r7, #4]
 8000ace:	7912      	ldrb	r2, [r2, #4]
 8000ad0:	4611      	mov	r1, r2
 8000ad2:	2201      	movs	r2, #1
 8000ad4:	408a      	lsls	r2, r1
 8000ad6:	43d2      	mvns	r2, r2
 8000ad8:	4611      	mov	r1, r2
 8000ada:	4a92      	ldr	r2, [pc, #584]	@ (8000d24 <GPIO_Init+0x2e4>)
 8000adc:	400b      	ands	r3, r1
 8000ade:	6093      	str	r3, [r2, #8]
			EXTI->FTSR |= (1 << pGPIOHandle->GPIO_PinConfig.GPIO_PinNumber);
 8000ae0:	4b90      	ldr	r3, [pc, #576]	@ (8000d24 <GPIO_Init+0x2e4>)
 8000ae2:	68db      	ldr	r3, [r3, #12]
 8000ae4:	687a      	ldr	r2, [r7, #4]
 8000ae6:	7912      	ldrb	r2, [r2, #4]
 8000ae8:	4611      	mov	r1, r2
 8000aea:	2201      	movs	r2, #1
 8000aec:	408a      	lsls	r2, r1
 8000aee:	4611      	mov	r1, r2
 8000af0:	4a8c      	ldr	r2, [pc, #560]	@ (8000d24 <GPIO_Init+0x2e4>)
 8000af2:	430b      	orrs	r3, r1
 8000af4:	60d3      	str	r3, [r2, #12]
 8000af6:	e035      	b.n	8000b64 <GPIO_Init+0x124>
		}
		else if(pGPIOHandle->GPIO_PinConfig.GPIO_PinMode == GPIO_MODE_IT_RT)
 8000af8:	687b      	ldr	r3, [r7, #4]
 8000afa:	795b      	ldrb	r3, [r3, #5]
 8000afc:	2b05      	cmp	r3, #5
 8000afe:	d117      	bne.n	8000b30 <GPIO_Init+0xf0>
		{
			// 1. Configure the RTSR
			// first we clear the corresponding FTSR bit so that we only have RTSR
			EXTI->FTSR &= ~(1 << pGPIOHandle->GPIO_PinConfig.GPIO_PinNumber);
 8000b00:	4b88      	ldr	r3, [pc, #544]	@ (8000d24 <GPIO_Init+0x2e4>)
 8000b02:	68db      	ldr	r3, [r3, #12]
 8000b04:	687a      	ldr	r2, [r7, #4]
 8000b06:	7912      	ldrb	r2, [r2, #4]
 8000b08:	4611      	mov	r1, r2
 8000b0a:	2201      	movs	r2, #1
 8000b0c:	408a      	lsls	r2, r1
 8000b0e:	43d2      	mvns	r2, r2
 8000b10:	4611      	mov	r1, r2
 8000b12:	4a84      	ldr	r2, [pc, #528]	@ (8000d24 <GPIO_Init+0x2e4>)
 8000b14:	400b      	ands	r3, r1
 8000b16:	60d3      	str	r3, [r2, #12]
			EXTI->RTSR |= (1 << pGPIOHandle->GPIO_PinConfig.GPIO_PinNumber);
 8000b18:	4b82      	ldr	r3, [pc, #520]	@ (8000d24 <GPIO_Init+0x2e4>)
 8000b1a:	689b      	ldr	r3, [r3, #8]
 8000b1c:	687a      	ldr	r2, [r7, #4]
 8000b1e:	7912      	ldrb	r2, [r2, #4]
 8000b20:	4611      	mov	r1, r2
 8000b22:	2201      	movs	r2, #1
 8000b24:	408a      	lsls	r2, r1
 8000b26:	4611      	mov	r1, r2
 8000b28:	4a7e      	ldr	r2, [pc, #504]	@ (8000d24 <GPIO_Init+0x2e4>)
 8000b2a:	430b      	orrs	r3, r1
 8000b2c:	6093      	str	r3, [r2, #8]
 8000b2e:	e019      	b.n	8000b64 <GPIO_Init+0x124>
		}
		else if(pGPIOHandle->GPIO_PinConfig.GPIO_PinMode == GPIO_MODE_IT_RFT)
 8000b30:	687b      	ldr	r3, [r7, #4]
 8000b32:	795b      	ldrb	r3, [r3, #5]
 8000b34:	2b06      	cmp	r3, #6
 8000b36:	d115      	bne.n	8000b64 <GPIO_Init+0x124>
		{
			// 1. Configure both FTSR and RTSR
			EXTI->FTSR |= (1 << pGPIOHandle->GPIO_PinConfig.GPIO_PinNumber);
 8000b38:	4b7a      	ldr	r3, [pc, #488]	@ (8000d24 <GPIO_Init+0x2e4>)
 8000b3a:	68db      	ldr	r3, [r3, #12]
 8000b3c:	687a      	ldr	r2, [r7, #4]
 8000b3e:	7912      	ldrb	r2, [r2, #4]
 8000b40:	4611      	mov	r1, r2
 8000b42:	2201      	movs	r2, #1
 8000b44:	408a      	lsls	r2, r1
 8000b46:	4611      	mov	r1, r2
 8000b48:	4a76      	ldr	r2, [pc, #472]	@ (8000d24 <GPIO_Init+0x2e4>)
 8000b4a:	430b      	orrs	r3, r1
 8000b4c:	60d3      	str	r3, [r2, #12]
			EXTI->RTSR |= (1 << pGPIOHandle->GPIO_PinConfig.GPIO_PinNumber);
 8000b4e:	4b75      	ldr	r3, [pc, #468]	@ (8000d24 <GPIO_Init+0x2e4>)
 8000b50:	689b      	ldr	r3, [r3, #8]
 8000b52:	687a      	ldr	r2, [r7, #4]
 8000b54:	7912      	ldrb	r2, [r2, #4]
 8000b56:	4611      	mov	r1, r2
 8000b58:	2201      	movs	r2, #1
 8000b5a:	408a      	lsls	r2, r1
 8000b5c:	4611      	mov	r1, r2
 8000b5e:	4a71      	ldr	r2, [pc, #452]	@ (8000d24 <GPIO_Init+0x2e4>)
 8000b60:	430b      	orrs	r3, r1
 8000b62:	6093      	str	r3, [r2, #8]
		}

		// 2. configure the GPIO port selection in SYSCFG_EXTICR
		// Calculate the register number EXTICR1/EXTICR2/EXTICR3/EXTICR4
		temp = (pGPIOHandle->GPIO_PinConfig.GPIO_PinNumber/4);
 8000b64:	687b      	ldr	r3, [r7, #4]
 8000b66:	791b      	ldrb	r3, [r3, #4]
 8000b68:	089b      	lsrs	r3, r3, #2
 8000b6a:	b2db      	uxtb	r3, r3
 8000b6c:	617b      	str	r3, [r7, #20]
		uint8_t portcode = GPIO_BASEADDR_TO_CODE(pGPIOHandle->pGPIOx);
 8000b6e:	687b      	ldr	r3, [r7, #4]
 8000b70:	681b      	ldr	r3, [r3, #0]
 8000b72:	4a6d      	ldr	r2, [pc, #436]	@ (8000d28 <GPIO_Init+0x2e8>)
 8000b74:	4293      	cmp	r3, r2
 8000b76:	d039      	beq.n	8000bec <GPIO_Init+0x1ac>
 8000b78:	687b      	ldr	r3, [r7, #4]
 8000b7a:	681b      	ldr	r3, [r3, #0]
 8000b7c:	4a6b      	ldr	r2, [pc, #428]	@ (8000d2c <GPIO_Init+0x2ec>)
 8000b7e:	4293      	cmp	r3, r2
 8000b80:	d032      	beq.n	8000be8 <GPIO_Init+0x1a8>
 8000b82:	687b      	ldr	r3, [r7, #4]
 8000b84:	681b      	ldr	r3, [r3, #0]
 8000b86:	4a6a      	ldr	r2, [pc, #424]	@ (8000d30 <GPIO_Init+0x2f0>)
 8000b88:	4293      	cmp	r3, r2
 8000b8a:	d02b      	beq.n	8000be4 <GPIO_Init+0x1a4>
 8000b8c:	687b      	ldr	r3, [r7, #4]
 8000b8e:	681b      	ldr	r3, [r3, #0]
 8000b90:	4a68      	ldr	r2, [pc, #416]	@ (8000d34 <GPIO_Init+0x2f4>)
 8000b92:	4293      	cmp	r3, r2
 8000b94:	d024      	beq.n	8000be0 <GPIO_Init+0x1a0>
 8000b96:	687b      	ldr	r3, [r7, #4]
 8000b98:	681b      	ldr	r3, [r3, #0]
 8000b9a:	4a67      	ldr	r2, [pc, #412]	@ (8000d38 <GPIO_Init+0x2f8>)
 8000b9c:	4293      	cmp	r3, r2
 8000b9e:	d01d      	beq.n	8000bdc <GPIO_Init+0x19c>
 8000ba0:	687b      	ldr	r3, [r7, #4]
 8000ba2:	681b      	ldr	r3, [r3, #0]
 8000ba4:	4a65      	ldr	r2, [pc, #404]	@ (8000d3c <GPIO_Init+0x2fc>)
 8000ba6:	4293      	cmp	r3, r2
 8000ba8:	d016      	beq.n	8000bd8 <GPIO_Init+0x198>
 8000baa:	687b      	ldr	r3, [r7, #4]
 8000bac:	681b      	ldr	r3, [r3, #0]
 8000bae:	4a64      	ldr	r2, [pc, #400]	@ (8000d40 <GPIO_Init+0x300>)
 8000bb0:	4293      	cmp	r3, r2
 8000bb2:	d00f      	beq.n	8000bd4 <GPIO_Init+0x194>
 8000bb4:	687b      	ldr	r3, [r7, #4]
 8000bb6:	681b      	ldr	r3, [r3, #0]
 8000bb8:	4a62      	ldr	r2, [pc, #392]	@ (8000d44 <GPIO_Init+0x304>)
 8000bba:	4293      	cmp	r3, r2
 8000bbc:	d008      	beq.n	8000bd0 <GPIO_Init+0x190>
 8000bbe:	687b      	ldr	r3, [r7, #4]
 8000bc0:	681b      	ldr	r3, [r3, #0]
 8000bc2:	4a61      	ldr	r2, [pc, #388]	@ (8000d48 <GPIO_Init+0x308>)
 8000bc4:	4293      	cmp	r3, r2
 8000bc6:	d101      	bne.n	8000bcc <GPIO_Init+0x18c>
 8000bc8:	2308      	movs	r3, #8
 8000bca:	e010      	b.n	8000bee <GPIO_Init+0x1ae>
 8000bcc:	2300      	movs	r3, #0
 8000bce:	e00e      	b.n	8000bee <GPIO_Init+0x1ae>
 8000bd0:	2307      	movs	r3, #7
 8000bd2:	e00c      	b.n	8000bee <GPIO_Init+0x1ae>
 8000bd4:	2306      	movs	r3, #6
 8000bd6:	e00a      	b.n	8000bee <GPIO_Init+0x1ae>
 8000bd8:	2305      	movs	r3, #5
 8000bda:	e008      	b.n	8000bee <GPIO_Init+0x1ae>
 8000bdc:	2304      	movs	r3, #4
 8000bde:	e006      	b.n	8000bee <GPIO_Init+0x1ae>
 8000be0:	2303      	movs	r3, #3
 8000be2:	e004      	b.n	8000bee <GPIO_Init+0x1ae>
 8000be4:	2302      	movs	r3, #2
 8000be6:	e002      	b.n	8000bee <GPIO_Init+0x1ae>
 8000be8:	2301      	movs	r3, #1
 8000bea:	e000      	b.n	8000bee <GPIO_Init+0x1ae>
 8000bec:	2300      	movs	r3, #0
 8000bee:	74fb      	strb	r3, [r7, #19]
		SYSCFG_CLK_EN();
 8000bf0:	4b56      	ldr	r3, [pc, #344]	@ (8000d4c <GPIO_Init+0x30c>)
 8000bf2:	6c5b      	ldr	r3, [r3, #68]	@ 0x44
 8000bf4:	4a55      	ldr	r2, [pc, #340]	@ (8000d4c <GPIO_Init+0x30c>)
 8000bf6:	f443 4380 	orr.w	r3, r3, #16384	@ 0x4000
 8000bfa:	6453      	str	r3, [r2, #68]	@ 0x44
		SYSCFG->EXTICR[temp] |= (portcode << (4*(pGPIOHandle->GPIO_PinConfig.GPIO_PinNumber)%4));
 8000bfc:	4a54      	ldr	r2, [pc, #336]	@ (8000d50 <GPIO_Init+0x310>)
 8000bfe:	697b      	ldr	r3, [r7, #20]
 8000c00:	3302      	adds	r3, #2
 8000c02:	f852 2023 	ldr.w	r2, [r2, r3, lsl #2]
 8000c06:	7cfb      	ldrb	r3, [r7, #19]
 8000c08:	4951      	ldr	r1, [pc, #324]	@ (8000d50 <GPIO_Init+0x310>)
 8000c0a:	431a      	orrs	r2, r3
 8000c0c:	697b      	ldr	r3, [r7, #20]
 8000c0e:	3302      	adds	r3, #2
 8000c10:	f841 2023 	str.w	r2, [r1, r3, lsl #2]

		// 3. Enable the EXTI interrupt delivery using IMR
		EXTI->IMR |= 1 << pGPIOHandle->GPIO_PinConfig.GPIO_PinNumber;
 8000c14:	4b43      	ldr	r3, [pc, #268]	@ (8000d24 <GPIO_Init+0x2e4>)
 8000c16:	681b      	ldr	r3, [r3, #0]
 8000c18:	687a      	ldr	r2, [r7, #4]
 8000c1a:	7912      	ldrb	r2, [r2, #4]
 8000c1c:	4611      	mov	r1, r2
 8000c1e:	2201      	movs	r2, #1
 8000c20:	408a      	lsls	r2, r1
 8000c22:	4611      	mov	r1, r2
 8000c24:	4a3f      	ldr	r2, [pc, #252]	@ (8000d24 <GPIO_Init+0x2e4>)
 8000c26:	430b      	orrs	r3, r1
 8000c28:	6013      	str	r3, [r2, #0]

	}

	// 2. Configure the speed
	temp = (pGPIOHandle->GPIO_PinConfig.GPIO_PinSpeed << (2*pGPIOHandle->GPIO_PinConfig.GPIO_PinNumber));
 8000c2a:	687b      	ldr	r3, [r7, #4]
 8000c2c:	799b      	ldrb	r3, [r3, #6]
 8000c2e:	461a      	mov	r2, r3
 8000c30:	687b      	ldr	r3, [r7, #4]
 8000c32:	791b      	ldrb	r3, [r3, #4]
 8000c34:	005b      	lsls	r3, r3, #1
 8000c36:	fa02 f303 	lsl.w	r3, r2, r3
 8000c3a:	617b      	str	r3, [r7, #20]
	pGPIOHandle->pGPIOx->OSPEEDR &= ~(0x3 << (2*pGPIOHandle->GPIO_PinConfig.GPIO_PinNumber));
 8000c3c:	687b      	ldr	r3, [r7, #4]
 8000c3e:	681b      	ldr	r3, [r3, #0]
 8000c40:	689a      	ldr	r2, [r3, #8]
 8000c42:	687b      	ldr	r3, [r7, #4]
 8000c44:	791b      	ldrb	r3, [r3, #4]
 8000c46:	005b      	lsls	r3, r3, #1
 8000c48:	2103      	movs	r1, #3
 8000c4a:	fa01 f303 	lsl.w	r3, r1, r3
 8000c4e:	43db      	mvns	r3, r3
 8000c50:	4619      	mov	r1, r3
 8000c52:	687b      	ldr	r3, [r7, #4]
 8000c54:	681b      	ldr	r3, [r3, #0]
 8000c56:	400a      	ands	r2, r1
 8000c58:	609a      	str	r2, [r3, #8]
	pGPIOHandle->pGPIOx->OSPEEDR |= temp;
 8000c5a:	687b      	ldr	r3, [r7, #4]
 8000c5c:	681b      	ldr	r3, [r3, #0]
 8000c5e:	6899      	ldr	r1, [r3, #8]
 8000c60:	687b      	ldr	r3, [r7, #4]
 8000c62:	681b      	ldr	r3, [r3, #0]
 8000c64:	697a      	ldr	r2, [r7, #20]
 8000c66:	430a      	orrs	r2, r1
 8000c68:	609a      	str	r2, [r3, #8]

	// 3. Configure the pupd settings
	temp = (pGPIOHandle->GPIO_PinConfig.GPIO_PinPuPdControl << (2*pGPIOHandle->GPIO_PinConfig.GPIO_PinNumber));
 8000c6a:	687b      	ldr	r3, [r7, #4]
 8000c6c:	79db      	ldrb	r3, [r3, #7]
 8000c6e:	461a      	mov	r2, r3
 8000c70:	687b      	ldr	r3, [r7, #4]
 8000c72:	791b      	ldrb	r3, [r3, #4]
 8000c74:	005b      	lsls	r3, r3, #1
 8000c76:	fa02 f303 	lsl.w	r3, r2, r3
 8000c7a:	617b      	str	r3, [r7, #20]
	pGPIOHandle->pGPIOx->PUPDR &= ~(0x3 << (2*pGPIOHandle->GPIO_PinConfig.GPIO_PinNumber));
 8000c7c:	687b      	ldr	r3, [r7, #4]
 8000c7e:	681b      	ldr	r3, [r3, #0]
 8000c80:	68da      	ldr	r2, [r3, #12]
 8000c82:	687b      	ldr	r3, [r7, #4]
 8000c84:	791b      	ldrb	r3, [r3, #4]
 8000c86:	005b      	lsls	r3, r3, #1
 8000c88:	2103      	movs	r1, #3
 8000c8a:	fa01 f303 	lsl.w	r3, r1, r3
 8000c8e:	43db      	mvns	r3, r3
 8000c90:	4619      	mov	r1, r3
 8000c92:	687b      	ldr	r3, [r7, #4]
 8000c94:	681b      	ldr	r3, [r3, #0]
 8000c96:	400a      	ands	r2, r1
 8000c98:	60da      	str	r2, [r3, #12]
	pGPIOHandle->pGPIOx->PUPDR |= temp;
 8000c9a:	687b      	ldr	r3, [r7, #4]
 8000c9c:	681b      	ldr	r3, [r3, #0]
 8000c9e:	68d9      	ldr	r1, [r3, #12]
 8000ca0:	687b      	ldr	r3, [r7, #4]
 8000ca2:	681b      	ldr	r3, [r3, #0]
 8000ca4:	697a      	ldr	r2, [r7, #20]
 8000ca6:	430a      	orrs	r2, r1
 8000ca8:	60da      	str	r2, [r3, #12]

	// 4. Conigure the optype
	temp = (pGPIOHandle->GPIO_PinConfig.GPIO_PinOPType << pGPIOHandle->GPIO_PinConfig.GPIO_PinNumber);
 8000caa:	687b      	ldr	r3, [r7, #4]
 8000cac:	7a1b      	ldrb	r3, [r3, #8]
 8000cae:	461a      	mov	r2, r3
 8000cb0:	687b      	ldr	r3, [r7, #4]
 8000cb2:	791b      	ldrb	r3, [r3, #4]
 8000cb4:	fa02 f303 	lsl.w	r3, r2, r3
 8000cb8:	617b      	str	r3, [r7, #20]
	pGPIOHandle->pGPIOx->OTYPER &= ~(0x1 << (2*pGPIOHandle->GPIO_PinConfig.GPIO_PinNumber));
 8000cba:	687b      	ldr	r3, [r7, #4]
 8000cbc:	681b      	ldr	r3, [r3, #0]
 8000cbe:	685a      	ldr	r2, [r3, #4]
 8000cc0:	687b      	ldr	r3, [r7, #4]
 8000cc2:	791b      	ldrb	r3, [r3, #4]
 8000cc4:	005b      	lsls	r3, r3, #1
 8000cc6:	2101      	movs	r1, #1
 8000cc8:	fa01 f303 	lsl.w	r3, r1, r3
 8000ccc:	43db      	mvns	r3, r3
 8000cce:	4619      	mov	r1, r3
 8000cd0:	687b      	ldr	r3, [r7, #4]
 8000cd2:	681b      	ldr	r3, [r3, #0]
 8000cd4:	400a      	ands	r2, r1
 8000cd6:	605a      	str	r2, [r3, #4]
	pGPIOHandle->pGPIOx->OTYPER |= temp;
 8000cd8:	687b      	ldr	r3, [r7, #4]
 8000cda:	681b      	ldr	r3, [r3, #0]
 8000cdc:	6859      	ldr	r1, [r3, #4]
 8000cde:	687b      	ldr	r3, [r7, #4]
 8000ce0:	681b      	ldr	r3, [r3, #0]
 8000ce2:	697a      	ldr	r2, [r7, #20]
 8000ce4:	430a      	orrs	r2, r1
 8000ce6:	605a      	str	r2, [r3, #4]

	// 5. configure the alt function
	if(pGPIOHandle->GPIO_PinConfig.GPIO_PinMode == GPIO_MODE_ALTFN)
 8000ce8:	687b      	ldr	r3, [r7, #4]
 8000cea:	795b      	ldrb	r3, [r3, #5]
 8000cec:	2b02      	cmp	r3, #2
 8000cee:	d139      	bne.n	8000d64 <GPIO_Init+0x324>
	{
		uint32_t pinpos = pGPIOHandle->GPIO_PinConfig.GPIO_PinNumber%8;
 8000cf0:	687b      	ldr	r3, [r7, #4]
 8000cf2:	791b      	ldrb	r3, [r3, #4]
 8000cf4:	f003 0307 	and.w	r3, r3, #7
 8000cf8:	60fb      	str	r3, [r7, #12]

		temp = (pGPIOHandle->GPIO_PinConfig.GPIO_PinAltFunMode << (4*pinpos));
 8000cfa:	687b      	ldr	r3, [r7, #4]
 8000cfc:	7a5b      	ldrb	r3, [r3, #9]
 8000cfe:	461a      	mov	r2, r3
 8000d00:	68fb      	ldr	r3, [r7, #12]
 8000d02:	009b      	lsls	r3, r3, #2
 8000d04:	fa02 f303 	lsl.w	r3, r2, r3
 8000d08:	617b      	str	r3, [r7, #20]
		if(pGPIOHandle->GPIO_PinConfig.GPIO_PinNumber <= GPIO_PIN_7)
 8000d0a:	687b      	ldr	r3, [r7, #4]
 8000d0c:	791b      	ldrb	r3, [r3, #4]
 8000d0e:	2b07      	cmp	r3, #7
 8000d10:	d820      	bhi.n	8000d54 <GPIO_Init+0x314>
		{
			// use AFL

			pGPIOHandle->pGPIOx->AFRL |= temp;
 8000d12:	687b      	ldr	r3, [r7, #4]
 8000d14:	681b      	ldr	r3, [r3, #0]
 8000d16:	6a19      	ldr	r1, [r3, #32]
 8000d18:	687b      	ldr	r3, [r7, #4]
 8000d1a:	681b      	ldr	r3, [r3, #0]
 8000d1c:	697a      	ldr	r2, [r7, #20]
 8000d1e:	430a      	orrs	r2, r1
 8000d20:	621a      	str	r2, [r3, #32]
		{
			// use AFH
			pGPIOHandle->pGPIOx->AFRH |= temp;
		}
	}
}
 8000d22:	e01f      	b.n	8000d64 <GPIO_Init+0x324>
 8000d24:	40013c00 	.word	0x40013c00
 8000d28:	40020000 	.word	0x40020000
 8000d2c:	40020400 	.word	0x40020400
 8000d30:	40020800 	.word	0x40020800
 8000d34:	40020c00 	.word	0x40020c00
 8000d38:	40021000 	.word	0x40021000
 8000d3c:	40021400 	.word	0x40021400
 8000d40:	40021800 	.word	0x40021800
 8000d44:	40021c00 	.word	0x40021c00
 8000d48:	40022000 	.word	0x40022000
 8000d4c:	40023800 	.word	0x40023800
 8000d50:	40013800 	.word	0x40013800
			pGPIOHandle->pGPIOx->AFRH |= temp;
 8000d54:	687b      	ldr	r3, [r7, #4]
 8000d56:	681b      	ldr	r3, [r3, #0]
 8000d58:	6a59      	ldr	r1, [r3, #36]	@ 0x24
 8000d5a:	687b      	ldr	r3, [r7, #4]
 8000d5c:	681b      	ldr	r3, [r3, #0]
 8000d5e:	697a      	ldr	r2, [r7, #20]
 8000d60:	430a      	orrs	r2, r1
 8000d62:	625a      	str	r2, [r3, #36]	@ 0x24
}
 8000d64:	bf00      	nop
 8000d66:	3718      	adds	r7, #24
 8000d68:	46bd      	mov	sp, r7
 8000d6a:	bd80      	pop	{r7, pc}

08000d6c <GPIO_IRQITConfig>:
 *
 * @Note			-
 *
 *************************************************************************************************/
void GPIO_IRQITConfig(uint8_t IRQNumber, uint8_t EnorDi)
{
 8000d6c:	b480      	push	{r7}
 8000d6e:	b083      	sub	sp, #12
 8000d70:	af00      	add	r7, sp, #0
 8000d72:	4603      	mov	r3, r0
 8000d74:	460a      	mov	r2, r1
 8000d76:	71fb      	strb	r3, [r7, #7]
 8000d78:	4613      	mov	r3, r2
 8000d7a:	71bb      	strb	r3, [r7, #6]
	// processor side configuration
	if(EnorDi == ENABLE)
 8000d7c:	79bb      	ldrb	r3, [r7, #6]
 8000d7e:	2b01      	cmp	r3, #1
 8000d80:	d133      	bne.n	8000dea <GPIO_IRQITConfig+0x7e>
	{
		if(IRQNumber <= 31)
 8000d82:	79fb      	ldrb	r3, [r7, #7]
 8000d84:	2b1f      	cmp	r3, #31
 8000d86:	d80a      	bhi.n	8000d9e <GPIO_IRQITConfig+0x32>
		{
			// program ISER1
			*NVIC_ISER0 |= (1<<IRQNumber);
 8000d88:	4b34      	ldr	r3, [pc, #208]	@ (8000e5c <GPIO_IRQITConfig+0xf0>)
 8000d8a:	681b      	ldr	r3, [r3, #0]
 8000d8c:	79fa      	ldrb	r2, [r7, #7]
 8000d8e:	2101      	movs	r1, #1
 8000d90:	fa01 f202 	lsl.w	r2, r1, r2
 8000d94:	4611      	mov	r1, r2
 8000d96:	4a31      	ldr	r2, [pc, #196]	@ (8000e5c <GPIO_IRQITConfig+0xf0>)
 8000d98:	430b      	orrs	r3, r1
 8000d9a:	6013      	str	r3, [r2, #0]
		else if (IRQNumber >= 64 && IRQNumber <= 96)
		{
			*NVIC_ICER2 |= (1<<(IRQNumber%64));
		}
	}
}
 8000d9c:	e059      	b.n	8000e52 <GPIO_IRQITConfig+0xe6>
		else if (IRQNumber >= 32 && IRQNumber <=63)
 8000d9e:	79fb      	ldrb	r3, [r7, #7]
 8000da0:	2b1f      	cmp	r3, #31
 8000da2:	d90f      	bls.n	8000dc4 <GPIO_IRQITConfig+0x58>
 8000da4:	79fb      	ldrb	r3, [r7, #7]
 8000da6:	2b3f      	cmp	r3, #63	@ 0x3f
 8000da8:	d80c      	bhi.n	8000dc4 <GPIO_IRQITConfig+0x58>
			*NVIC_ISER1 |= (1<<(IRQNumber%32));
 8000daa:	4b2d      	ldr	r3, [pc, #180]	@ (8000e60 <GPIO_IRQITConfig+0xf4>)
 8000dac:	681b      	ldr	r3, [r3, #0]
 8000dae:	79fa      	ldrb	r2, [r7, #7]
 8000db0:	f002 021f 	and.w	r2, r2, #31
 8000db4:	2101      	movs	r1, #1
 8000db6:	fa01 f202 	lsl.w	r2, r1, r2
 8000dba:	4611      	mov	r1, r2
 8000dbc:	4a28      	ldr	r2, [pc, #160]	@ (8000e60 <GPIO_IRQITConfig+0xf4>)
 8000dbe:	430b      	orrs	r3, r1
 8000dc0:	6013      	str	r3, [r2, #0]
 8000dc2:	e046      	b.n	8000e52 <GPIO_IRQITConfig+0xe6>
		else if (IRQNumber >= 64 && IRQNumber <= 96)
 8000dc4:	79fb      	ldrb	r3, [r7, #7]
 8000dc6:	2b3f      	cmp	r3, #63	@ 0x3f
 8000dc8:	d943      	bls.n	8000e52 <GPIO_IRQITConfig+0xe6>
 8000dca:	79fb      	ldrb	r3, [r7, #7]
 8000dcc:	2b60      	cmp	r3, #96	@ 0x60
 8000dce:	d840      	bhi.n	8000e52 <GPIO_IRQITConfig+0xe6>
			*NVIC_ISER2 |= (1<<(IRQNumber%64));
 8000dd0:	4b24      	ldr	r3, [pc, #144]	@ (8000e64 <GPIO_IRQITConfig+0xf8>)
 8000dd2:	681b      	ldr	r3, [r3, #0]
 8000dd4:	79fa      	ldrb	r2, [r7, #7]
 8000dd6:	f002 023f 	and.w	r2, r2, #63	@ 0x3f
 8000dda:	2101      	movs	r1, #1
 8000ddc:	fa01 f202 	lsl.w	r2, r1, r2
 8000de0:	4611      	mov	r1, r2
 8000de2:	4a20      	ldr	r2, [pc, #128]	@ (8000e64 <GPIO_IRQITConfig+0xf8>)
 8000de4:	430b      	orrs	r3, r1
 8000de6:	6013      	str	r3, [r2, #0]
}
 8000de8:	e033      	b.n	8000e52 <GPIO_IRQITConfig+0xe6>
		if(IRQNumber <= 31)
 8000dea:	79fb      	ldrb	r3, [r7, #7]
 8000dec:	2b1f      	cmp	r3, #31
 8000dee:	d80a      	bhi.n	8000e06 <GPIO_IRQITConfig+0x9a>
			*NVIC_ICER0 |= (1<<IRQNumber);
 8000df0:	4b1d      	ldr	r3, [pc, #116]	@ (8000e68 <GPIO_IRQITConfig+0xfc>)
 8000df2:	681b      	ldr	r3, [r3, #0]
 8000df4:	79fa      	ldrb	r2, [r7, #7]
 8000df6:	2101      	movs	r1, #1
 8000df8:	fa01 f202 	lsl.w	r2, r1, r2
 8000dfc:	4611      	mov	r1, r2
 8000dfe:	4a1a      	ldr	r2, [pc, #104]	@ (8000e68 <GPIO_IRQITConfig+0xfc>)
 8000e00:	430b      	orrs	r3, r1
 8000e02:	6013      	str	r3, [r2, #0]
}
 8000e04:	e025      	b.n	8000e52 <GPIO_IRQITConfig+0xe6>
		else if (IRQNumber >= 32 && IRQNumber <=63)
 8000e06:	79fb      	ldrb	r3, [r7, #7]
 8000e08:	2b1f      	cmp	r3, #31
 8000e0a:	d90f      	bls.n	8000e2c <GPIO_IRQITConfig+0xc0>
 8000e0c:	79fb      	ldrb	r3, [r7, #7]
 8000e0e:	2b3f      	cmp	r3, #63	@ 0x3f
 8000e10:	d80c      	bhi.n	8000e2c <GPIO_IRQITConfig+0xc0>
			*NVIC_ICER1 |= (1<<(IRQNumber%32));
 8000e12:	4b16      	ldr	r3, [pc, #88]	@ (8000e6c <GPIO_IRQITConfig+0x100>)
 8000e14:	681b      	ldr	r3, [r3, #0]
 8000e16:	79fa      	ldrb	r2, [r7, #7]
 8000e18:	f002 021f 	and.w	r2, r2, #31
 8000e1c:	2101      	movs	r1, #1
 8000e1e:	fa01 f202 	lsl.w	r2, r1, r2
 8000e22:	4611      	mov	r1, r2
 8000e24:	4a11      	ldr	r2, [pc, #68]	@ (8000e6c <GPIO_IRQITConfig+0x100>)
 8000e26:	430b      	orrs	r3, r1
 8000e28:	6013      	str	r3, [r2, #0]
 8000e2a:	e012      	b.n	8000e52 <GPIO_IRQITConfig+0xe6>
		else if (IRQNumber >= 64 && IRQNumber <= 96)
 8000e2c:	79fb      	ldrb	r3, [r7, #7]
 8000e2e:	2b3f      	cmp	r3, #63	@ 0x3f
 8000e30:	d90f      	bls.n	8000e52 <GPIO_IRQITConfig+0xe6>
 8000e32:	79fb      	ldrb	r3, [r7, #7]
 8000e34:	2b60      	cmp	r3, #96	@ 0x60
 8000e36:	d80c      	bhi.n	8000e52 <GPIO_IRQITConfig+0xe6>
			*NVIC_ICER2 |= (1<<(IRQNumber%64));
 8000e38:	4b0d      	ldr	r3, [pc, #52]	@ (8000e70 <GPIO_IRQITConfig+0x104>)
 8000e3a:	681b      	ldr	r3, [r3, #0]
 8000e3c:	79fa      	ldrb	r2, [r7, #7]
 8000e3e:	f002 023f 	and.w	r2, r2, #63	@ 0x3f
 8000e42:	2101      	movs	r1, #1
 8000e44:	fa01 f202 	lsl.w	r2, r1, r2
 8000e48:	4611      	mov	r1, r2
 8000e4a:	4a09      	ldr	r2, [pc, #36]	@ (8000e70 <GPIO_IRQITConfig+0x104>)
 8000e4c:	430b      	orrs	r3, r1
 8000e4e:	6013      	str	r3, [r2, #0]
}
 8000e50:	e7ff      	b.n	8000e52 <GPIO_IRQITConfig+0xe6>
 8000e52:	bf00      	nop
 8000e54:	370c      	adds	r7, #12
 8000e56:	46bd      	mov	sp, r7
 8000e58:	bc80      	pop	{r7}
 8000e5a:	4770      	bx	lr
 8000e5c:	e000e100 	.word	0xe000e100
 8000e60:	e000e104 	.word	0xe000e104
 8000e64:	e000e108 	.word	0xe000e108
 8000e68:	e000e180 	.word	0xe000e180
 8000e6c:	e000e184 	.word	0xe000e184
 8000e70:	e000e188 	.word	0xe000e188

08000e74 <GPIO_IRQHandling>:
 *
 * @Note			-
 *
 *************************************************************************************************/
void GPIO_IRQHandling(uint8_t PinNumber)
{
 8000e74:	b480      	push	{r7}
 8000e76:	b083      	sub	sp, #12
 8000e78:	af00      	add	r7, sp, #0
 8000e7a:	4603      	mov	r3, r0
 8000e7c:	71fb      	strb	r3, [r7, #7]
	// clear the EXTI PR register corresponding to the pin number
	if(EXTI->PR & (1<<PinNumber))
 8000e7e:	4b0c      	ldr	r3, [pc, #48]	@ (8000eb0 <GPIO_IRQHandling+0x3c>)
 8000e80:	695b      	ldr	r3, [r3, #20]
 8000e82:	79fa      	ldrb	r2, [r7, #7]
 8000e84:	2101      	movs	r1, #1
 8000e86:	fa01 f202 	lsl.w	r2, r1, r2
 8000e8a:	4013      	ands	r3, r2
 8000e8c:	2b00      	cmp	r3, #0
 8000e8e:	d009      	beq.n	8000ea4 <GPIO_IRQHandling+0x30>
	{
		// the interrupt is pended so we clear the register bit
		EXTI->PR |= (1 << PinNumber);
 8000e90:	4b07      	ldr	r3, [pc, #28]	@ (8000eb0 <GPIO_IRQHandling+0x3c>)
 8000e92:	695b      	ldr	r3, [r3, #20]
 8000e94:	79fa      	ldrb	r2, [r7, #7]
 8000e96:	2101      	movs	r1, #1
 8000e98:	fa01 f202 	lsl.w	r2, r1, r2
 8000e9c:	4611      	mov	r1, r2
 8000e9e:	4a04      	ldr	r2, [pc, #16]	@ (8000eb0 <GPIO_IRQHandling+0x3c>)
 8000ea0:	430b      	orrs	r3, r1
 8000ea2:	6153      	str	r3, [r2, #20]
	}
}
 8000ea4:	bf00      	nop
 8000ea6:	370c      	adds	r7, #12
 8000ea8:	46bd      	mov	sp, r7
 8000eaa:	bc80      	pop	{r7}
 8000eac:	4770      	bx	lr
 8000eae:	bf00      	nop
 8000eb0:	40013c00 	.word	0x40013c00

08000eb4 <std>:
 8000eb4:	2300      	movs	r3, #0
 8000eb6:	b510      	push	{r4, lr}
 8000eb8:	4604      	mov	r4, r0
 8000eba:	e9c0 3300 	strd	r3, r3, [r0]
 8000ebe:	e9c0 3304 	strd	r3, r3, [r0, #16]
 8000ec2:	6083      	str	r3, [r0, #8]
 8000ec4:	8181      	strh	r1, [r0, #12]
 8000ec6:	6643      	str	r3, [r0, #100]	@ 0x64
 8000ec8:	81c2      	strh	r2, [r0, #14]
 8000eca:	6183      	str	r3, [r0, #24]
 8000ecc:	4619      	mov	r1, r3
 8000ece:	2208      	movs	r2, #8
 8000ed0:	305c      	adds	r0, #92	@ 0x5c
 8000ed2:	f000 f906 	bl	80010e2 <memset>
 8000ed6:	4b0d      	ldr	r3, [pc, #52]	@ (8000f0c <std+0x58>)
 8000ed8:	6263      	str	r3, [r4, #36]	@ 0x24
 8000eda:	4b0d      	ldr	r3, [pc, #52]	@ (8000f10 <std+0x5c>)
 8000edc:	62a3      	str	r3, [r4, #40]	@ 0x28
 8000ede:	4b0d      	ldr	r3, [pc, #52]	@ (8000f14 <std+0x60>)
 8000ee0:	62e3      	str	r3, [r4, #44]	@ 0x2c
 8000ee2:	4b0d      	ldr	r3, [pc, #52]	@ (8000f18 <std+0x64>)
 8000ee4:	6323      	str	r3, [r4, #48]	@ 0x30
 8000ee6:	4b0d      	ldr	r3, [pc, #52]	@ (8000f1c <std+0x68>)
 8000ee8:	6224      	str	r4, [r4, #32]
 8000eea:	429c      	cmp	r4, r3
 8000eec:	d006      	beq.n	8000efc <std+0x48>
 8000eee:	f103 0268 	add.w	r2, r3, #104	@ 0x68
 8000ef2:	4294      	cmp	r4, r2
 8000ef4:	d002      	beq.n	8000efc <std+0x48>
 8000ef6:	33d0      	adds	r3, #208	@ 0xd0
 8000ef8:	429c      	cmp	r4, r3
 8000efa:	d105      	bne.n	8000f08 <std+0x54>
 8000efc:	f104 0058 	add.w	r0, r4, #88	@ 0x58
 8000f00:	e8bd 4010 	ldmia.w	sp!, {r4, lr}
 8000f04:	f000 b966 	b.w	80011d4 <__retarget_lock_init_recursive>
 8000f08:	bd10      	pop	{r4, pc}
 8000f0a:	bf00      	nop
 8000f0c:	0800105d 	.word	0x0800105d
 8000f10:	0800107f 	.word	0x0800107f
 8000f14:	080010b7 	.word	0x080010b7
 8000f18:	080010db 	.word	0x080010db
 8000f1c:	200004ac 	.word	0x200004ac

08000f20 <stdio_exit_handler>:
 8000f20:	4a02      	ldr	r2, [pc, #8]	@ (8000f2c <stdio_exit_handler+0xc>)
 8000f22:	4903      	ldr	r1, [pc, #12]	@ (8000f30 <stdio_exit_handler+0x10>)
 8000f24:	4803      	ldr	r0, [pc, #12]	@ (8000f34 <stdio_exit_handler+0x14>)
 8000f26:	f000 b869 	b.w	8000ffc <_fwalk_sglue>
 8000f2a:	bf00      	nop
 8000f2c:	20000004 	.word	0x20000004
 8000f30:	08001a69 	.word	0x08001a69
 8000f34:	20000014 	.word	0x20000014

08000f38 <cleanup_stdio>:
 8000f38:	6841      	ldr	r1, [r0, #4]
 8000f3a:	4b0c      	ldr	r3, [pc, #48]	@ (8000f6c <cleanup_stdio+0x34>)
 8000f3c:	4299      	cmp	r1, r3
 8000f3e:	b510      	push	{r4, lr}
 8000f40:	4604      	mov	r4, r0
 8000f42:	d001      	beq.n	8000f48 <cleanup_stdio+0x10>
 8000f44:	f000 fd90 	bl	8001a68 <_fflush_r>
 8000f48:	68a1      	ldr	r1, [r4, #8]
 8000f4a:	4b09      	ldr	r3, [pc, #36]	@ (8000f70 <cleanup_stdio+0x38>)
 8000f4c:	4299      	cmp	r1, r3
 8000f4e:	d002      	beq.n	8000f56 <cleanup_stdio+0x1e>
 8000f50:	4620      	mov	r0, r4
 8000f52:	f000 fd89 	bl	8001a68 <_fflush_r>
 8000f56:	68e1      	ldr	r1, [r4, #12]
 8000f58:	4b06      	ldr	r3, [pc, #24]	@ (8000f74 <cleanup_stdio+0x3c>)
 8000f5a:	4299      	cmp	r1, r3
 8000f5c:	d004      	beq.n	8000f68 <cleanup_stdio+0x30>
 8000f5e:	4620      	mov	r0, r4
 8000f60:	e8bd 4010 	ldmia.w	sp!, {r4, lr}
 8000f64:	f000 bd80 	b.w	8001a68 <_fflush_r>
 8000f68:	bd10      	pop	{r4, pc}
 8000f6a:	bf00      	nop
 8000f6c:	200004ac 	.word	0x200004ac
 8000f70:	20000514 	.word	0x20000514
 8000f74:	2000057c 	.word	0x2000057c

08000f78 <global_stdio_init.part.0>:
 8000f78:	b510      	push	{r4, lr}
 8000f7a:	4b0b      	ldr	r3, [pc, #44]	@ (8000fa8 <global_stdio_init.part.0+0x30>)
 8000f7c:	4c0b      	ldr	r4, [pc, #44]	@ (8000fac <global_stdio_init.part.0+0x34>)
 8000f7e:	4a0c      	ldr	r2, [pc, #48]	@ (8000fb0 <global_stdio_init.part.0+0x38>)
 8000f80:	601a      	str	r2, [r3, #0]
 8000f82:	4620      	mov	r0, r4
 8000f84:	2200      	movs	r2, #0
 8000f86:	2104      	movs	r1, #4
 8000f88:	f7ff ff94 	bl	8000eb4 <std>
 8000f8c:	f104 0068 	add.w	r0, r4, #104	@ 0x68
 8000f90:	2201      	movs	r2, #1
 8000f92:	2109      	movs	r1, #9
 8000f94:	f7ff ff8e 	bl	8000eb4 <std>
 8000f98:	f104 00d0 	add.w	r0, r4, #208	@ 0xd0
 8000f9c:	2202      	movs	r2, #2
 8000f9e:	e8bd 4010 	ldmia.w	sp!, {r4, lr}
 8000fa2:	2112      	movs	r1, #18
 8000fa4:	f7ff bf86 	b.w	8000eb4 <std>
 8000fa8:	200005e4 	.word	0x200005e4
 8000fac:	200004ac 	.word	0x200004ac
 8000fb0:	08000f21 	.word	0x08000f21

08000fb4 <__sfp_lock_acquire>:
 8000fb4:	4801      	ldr	r0, [pc, #4]	@ (8000fbc <__sfp_lock_acquire+0x8>)
 8000fb6:	f000 b90e 	b.w	80011d6 <__retarget_lock_acquire_recursive>
 8000fba:	bf00      	nop
 8000fbc:	200005ed 	.word	0x200005ed

08000fc0 <__sfp_lock_release>:
 8000fc0:	4801      	ldr	r0, [pc, #4]	@ (8000fc8 <__sfp_lock_release+0x8>)
 8000fc2:	f000 b909 	b.w	80011d8 <__retarget_lock_release_recursive>
 8000fc6:	bf00      	nop
 8000fc8:	200005ed 	.word	0x200005ed

08000fcc <__sinit>:
 8000fcc:	b510      	push	{r4, lr}
 8000fce:	4604      	mov	r4, r0
 8000fd0:	f7ff fff0 	bl	8000fb4 <__sfp_lock_acquire>
 8000fd4:	6a23      	ldr	r3, [r4, #32]
 8000fd6:	b11b      	cbz	r3, 8000fe0 <__sinit+0x14>
 8000fd8:	e8bd 4010 	ldmia.w	sp!, {r4, lr}
 8000fdc:	f7ff bff0 	b.w	8000fc0 <__sfp_lock_release>
 8000fe0:	4b04      	ldr	r3, [pc, #16]	@ (8000ff4 <__sinit+0x28>)
 8000fe2:	6223      	str	r3, [r4, #32]
 8000fe4:	4b04      	ldr	r3, [pc, #16]	@ (8000ff8 <__sinit+0x2c>)
 8000fe6:	681b      	ldr	r3, [r3, #0]
 8000fe8:	2b00      	cmp	r3, #0
 8000fea:	d1f5      	bne.n	8000fd8 <__sinit+0xc>
 8000fec:	f7ff ffc4 	bl	8000f78 <global_stdio_init.part.0>
 8000ff0:	e7f2      	b.n	8000fd8 <__sinit+0xc>
 8000ff2:	bf00      	nop
 8000ff4:	08000f39 	.word	0x08000f39
 8000ff8:	200005e4 	.word	0x200005e4

08000ffc <_fwalk_sglue>:
 8000ffc:	e92d 43f8 	stmdb	sp!, {r3, r4, r5, r6, r7, r8, r9, lr}
 8001000:	4607      	mov	r7, r0
 8001002:	4688      	mov	r8, r1
 8001004:	4614      	mov	r4, r2
 8001006:	2600      	movs	r6, #0
 8001008:	e9d4 9501 	ldrd	r9, r5, [r4, #4]
 800100c:	f1b9 0901 	subs.w	r9, r9, #1
 8001010:	d505      	bpl.n	800101e <_fwalk_sglue+0x22>
 8001012:	6824      	ldr	r4, [r4, #0]
 8001014:	2c00      	cmp	r4, #0
 8001016:	d1f7      	bne.n	8001008 <_fwalk_sglue+0xc>
 8001018:	4630      	mov	r0, r6
 800101a:	e8bd 83f8 	ldmia.w	sp!, {r3, r4, r5, r6, r7, r8, r9, pc}
 800101e:	89ab      	ldrh	r3, [r5, #12]
 8001020:	2b01      	cmp	r3, #1
 8001022:	d907      	bls.n	8001034 <_fwalk_sglue+0x38>
 8001024:	f9b5 300e 	ldrsh.w	r3, [r5, #14]
 8001028:	3301      	adds	r3, #1
 800102a:	d003      	beq.n	8001034 <_fwalk_sglue+0x38>
 800102c:	4629      	mov	r1, r5
 800102e:	4638      	mov	r0, r7
 8001030:	47c0      	blx	r8
 8001032:	4306      	orrs	r6, r0
 8001034:	3568      	adds	r5, #104	@ 0x68
 8001036:	e7e9      	b.n	800100c <_fwalk_sglue+0x10>

08001038 <iprintf>:
 8001038:	b40f      	push	{r0, r1, r2, r3}
 800103a:	b507      	push	{r0, r1, r2, lr}
 800103c:	4906      	ldr	r1, [pc, #24]	@ (8001058 <iprintf+0x20>)
 800103e:	ab04      	add	r3, sp, #16
 8001040:	6808      	ldr	r0, [r1, #0]
 8001042:	f853 2b04 	ldr.w	r2, [r3], #4
 8001046:	6881      	ldr	r1, [r0, #8]
 8001048:	9301      	str	r3, [sp, #4]
 800104a:	f000 f9e7 	bl	800141c <_vfiprintf_r>
 800104e:	b003      	add	sp, #12
 8001050:	f85d eb04 	ldr.w	lr, [sp], #4
 8001054:	b004      	add	sp, #16
 8001056:	4770      	bx	lr
 8001058:	20000010 	.word	0x20000010

0800105c <__sread>:
 800105c:	b510      	push	{r4, lr}
 800105e:	460c      	mov	r4, r1
 8001060:	f9b1 100e 	ldrsh.w	r1, [r1, #14]
 8001064:	f000 f868 	bl	8001138 <_read_r>
 8001068:	2800      	cmp	r0, #0
 800106a:	bfab      	itete	ge
 800106c:	6d63      	ldrge	r3, [r4, #84]	@ 0x54
 800106e:	89a3      	ldrhlt	r3, [r4, #12]
 8001070:	181b      	addge	r3, r3, r0
 8001072:	f423 5380 	biclt.w	r3, r3, #4096	@ 0x1000
 8001076:	bfac      	ite	ge
 8001078:	6563      	strge	r3, [r4, #84]	@ 0x54
 800107a:	81a3      	strhlt	r3, [r4, #12]
 800107c:	bd10      	pop	{r4, pc}

0800107e <__swrite>:
 800107e:	e92d 41f0 	stmdb	sp!, {r4, r5, r6, r7, r8, lr}
 8001082:	461f      	mov	r7, r3
 8001084:	898b      	ldrh	r3, [r1, #12]
 8001086:	05db      	lsls	r3, r3, #23
 8001088:	4605      	mov	r5, r0
 800108a:	460c      	mov	r4, r1
 800108c:	4616      	mov	r6, r2
 800108e:	d505      	bpl.n	800109c <__swrite+0x1e>
 8001090:	f9b1 100e 	ldrsh.w	r1, [r1, #14]
 8001094:	2302      	movs	r3, #2
 8001096:	2200      	movs	r2, #0
 8001098:	f000 f83c 	bl	8001114 <_lseek_r>
 800109c:	89a3      	ldrh	r3, [r4, #12]
 800109e:	f9b4 100e 	ldrsh.w	r1, [r4, #14]
 80010a2:	f423 5380 	bic.w	r3, r3, #4096	@ 0x1000
 80010a6:	81a3      	strh	r3, [r4, #12]
 80010a8:	4632      	mov	r2, r6
 80010aa:	463b      	mov	r3, r7
 80010ac:	4628      	mov	r0, r5
 80010ae:	e8bd 41f0 	ldmia.w	sp!, {r4, r5, r6, r7, r8, lr}
 80010b2:	f000 b853 	b.w	800115c <_write_r>

080010b6 <__sseek>:
 80010b6:	b510      	push	{r4, lr}
 80010b8:	460c      	mov	r4, r1
 80010ba:	f9b1 100e 	ldrsh.w	r1, [r1, #14]
 80010be:	f000 f829 	bl	8001114 <_lseek_r>
 80010c2:	1c43      	adds	r3, r0, #1
 80010c4:	89a3      	ldrh	r3, [r4, #12]
 80010c6:	bf15      	itete	ne
 80010c8:	6560      	strne	r0, [r4, #84]	@ 0x54
 80010ca:	f423 5380 	biceq.w	r3, r3, #4096	@ 0x1000
 80010ce:	f443 5380 	orrne.w	r3, r3, #4096	@ 0x1000
 80010d2:	81a3      	strheq	r3, [r4, #12]
 80010d4:	bf18      	it	ne
 80010d6:	81a3      	strhne	r3, [r4, #12]
 80010d8:	bd10      	pop	{r4, pc}

080010da <__sclose>:
 80010da:	f9b1 100e 	ldrsh.w	r1, [r1, #14]
 80010de:	f000 b809 	b.w	80010f4 <_close_r>

080010e2 <memset>:
 80010e2:	4402      	add	r2, r0
 80010e4:	4603      	mov	r3, r0
 80010e6:	4293      	cmp	r3, r2
 80010e8:	d100      	bne.n	80010ec <memset+0xa>
 80010ea:	4770      	bx	lr
 80010ec:	f803 1b01 	strb.w	r1, [r3], #1
 80010f0:	e7f9      	b.n	80010e6 <memset+0x4>
	...

080010f4 <_close_r>:
 80010f4:	b538      	push	{r3, r4, r5, lr}
 80010f6:	4d06      	ldr	r5, [pc, #24]	@ (8001110 <_close_r+0x1c>)
 80010f8:	2300      	movs	r3, #0
 80010fa:	4604      	mov	r4, r0
 80010fc:	4608      	mov	r0, r1
 80010fe:	602b      	str	r3, [r5, #0]
 8001100:	f7ff f9a9 	bl	8000456 <_close>
 8001104:	1c43      	adds	r3, r0, #1
 8001106:	d102      	bne.n	800110e <_close_r+0x1a>
 8001108:	682b      	ldr	r3, [r5, #0]
 800110a:	b103      	cbz	r3, 800110e <_close_r+0x1a>
 800110c:	6023      	str	r3, [r4, #0]
 800110e:	bd38      	pop	{r3, r4, r5, pc}
 8001110:	200005e8 	.word	0x200005e8

08001114 <_lseek_r>:
 8001114:	b538      	push	{r3, r4, r5, lr}
 8001116:	4d07      	ldr	r5, [pc, #28]	@ (8001134 <_lseek_r+0x20>)
 8001118:	4604      	mov	r4, r0
 800111a:	4608      	mov	r0, r1
 800111c:	4611      	mov	r1, r2
 800111e:	2200      	movs	r2, #0
 8001120:	602a      	str	r2, [r5, #0]
 8001122:	461a      	mov	r2, r3
 8001124:	f7ff f9bb 	bl	800049e <_lseek>
 8001128:	1c43      	adds	r3, r0, #1
 800112a:	d102      	bne.n	8001132 <_lseek_r+0x1e>
 800112c:	682b      	ldr	r3, [r5, #0]
 800112e:	b103      	cbz	r3, 8001132 <_lseek_r+0x1e>
 8001130:	6023      	str	r3, [r4, #0]
 8001132:	bd38      	pop	{r3, r4, r5, pc}
 8001134:	200005e8 	.word	0x200005e8

08001138 <_read_r>:
 8001138:	b538      	push	{r3, r4, r5, lr}
 800113a:	4d07      	ldr	r5, [pc, #28]	@ (8001158 <_read_r+0x20>)
 800113c:	4604      	mov	r4, r0
 800113e:	4608      	mov	r0, r1
 8001140:	4611      	mov	r1, r2
 8001142:	2200      	movs	r2, #0
 8001144:	602a      	str	r2, [r5, #0]
 8001146:	461a      	mov	r2, r3
 8001148:	f7ff f94c 	bl	80003e4 <_read>
 800114c:	1c43      	adds	r3, r0, #1
 800114e:	d102      	bne.n	8001156 <_read_r+0x1e>
 8001150:	682b      	ldr	r3, [r5, #0]
 8001152:	b103      	cbz	r3, 8001156 <_read_r+0x1e>
 8001154:	6023      	str	r3, [r4, #0]
 8001156:	bd38      	pop	{r3, r4, r5, pc}
 8001158:	200005e8 	.word	0x200005e8

0800115c <_write_r>:
 800115c:	b538      	push	{r3, r4, r5, lr}
 800115e:	4d07      	ldr	r5, [pc, #28]	@ (800117c <_write_r+0x20>)
 8001160:	4604      	mov	r4, r0
 8001162:	4608      	mov	r0, r1
 8001164:	4611      	mov	r1, r2
 8001166:	2200      	movs	r2, #0
 8001168:	602a      	str	r2, [r5, #0]
 800116a:	461a      	mov	r2, r3
 800116c:	f7ff f957 	bl	800041e <_write>
 8001170:	1c43      	adds	r3, r0, #1
 8001172:	d102      	bne.n	800117a <_write_r+0x1e>
 8001174:	682b      	ldr	r3, [r5, #0]
 8001176:	b103      	cbz	r3, 800117a <_write_r+0x1e>
 8001178:	6023      	str	r3, [r4, #0]
 800117a:	bd38      	pop	{r3, r4, r5, pc}
 800117c:	200005e8 	.word	0x200005e8

08001180 <__errno>:
 8001180:	4b01      	ldr	r3, [pc, #4]	@ (8001188 <__errno+0x8>)
 8001182:	6818      	ldr	r0, [r3, #0]
 8001184:	4770      	bx	lr
 8001186:	bf00      	nop
 8001188:	20000010 	.word	0x20000010

0800118c <__libc_init_array>:
 800118c:	b570      	push	{r4, r5, r6, lr}
 800118e:	4d0d      	ldr	r5, [pc, #52]	@ (80011c4 <__libc_init_array+0x38>)
 8001190:	4c0d      	ldr	r4, [pc, #52]	@ (80011c8 <__libc_init_array+0x3c>)
 8001192:	1b64      	subs	r4, r4, r5
 8001194:	10a4      	asrs	r4, r4, #2
 8001196:	2600      	movs	r6, #0
 8001198:	42a6      	cmp	r6, r4
 800119a:	d109      	bne.n	80011b0 <__libc_init_array+0x24>
 800119c:	4d0b      	ldr	r5, [pc, #44]	@ (80011cc <__libc_init_array+0x40>)
 800119e:	4c0c      	ldr	r4, [pc, #48]	@ (80011d0 <__libc_init_array+0x44>)
 80011a0:	f000 fdb2 	bl	8001d08 <_init>
 80011a4:	1b64      	subs	r4, r4, r5
 80011a6:	10a4      	asrs	r4, r4, #2
 80011a8:	2600      	movs	r6, #0
 80011aa:	42a6      	cmp	r6, r4
 80011ac:	d105      	bne.n	80011ba <__libc_init_array+0x2e>
 80011ae:	bd70      	pop	{r4, r5, r6, pc}
 80011b0:	f855 3b04 	ldr.w	r3, [r5], #4
 80011b4:	4798      	blx	r3
 80011b6:	3601      	adds	r6, #1
 80011b8:	e7ee      	b.n	8001198 <__libc_init_array+0xc>
 80011ba:	f855 3b04 	ldr.w	r3, [r5], #4
 80011be:	4798      	blx	r3
 80011c0:	3601      	adds	r6, #1
 80011c2:	e7f2      	b.n	80011aa <__libc_init_array+0x1e>
 80011c4:	08001d70 	.word	0x08001d70
 80011c8:	08001d70 	.word	0x08001d70
 80011cc:	08001d70 	.word	0x08001d70
 80011d0:	08001d74 	.word	0x08001d74

080011d4 <__retarget_lock_init_recursive>:
 80011d4:	4770      	bx	lr

080011d6 <__retarget_lock_acquire_recursive>:
 80011d6:	4770      	bx	lr

080011d8 <__retarget_lock_release_recursive>:
 80011d8:	4770      	bx	lr
	...

080011dc <_free_r>:
 80011dc:	b538      	push	{r3, r4, r5, lr}
 80011de:	4605      	mov	r5, r0
 80011e0:	2900      	cmp	r1, #0
 80011e2:	d041      	beq.n	8001268 <_free_r+0x8c>
 80011e4:	f851 3c04 	ldr.w	r3, [r1, #-4]
 80011e8:	1f0c      	subs	r4, r1, #4
 80011ea:	2b00      	cmp	r3, #0
 80011ec:	bfb8      	it	lt
 80011ee:	18e4      	addlt	r4, r4, r3
 80011f0:	f000 f8e0 	bl	80013b4 <__malloc_lock>
 80011f4:	4a1d      	ldr	r2, [pc, #116]	@ (800126c <_free_r+0x90>)
 80011f6:	6813      	ldr	r3, [r2, #0]
 80011f8:	b933      	cbnz	r3, 8001208 <_free_r+0x2c>
 80011fa:	6063      	str	r3, [r4, #4]
 80011fc:	6014      	str	r4, [r2, #0]
 80011fe:	4628      	mov	r0, r5
 8001200:	e8bd 4038 	ldmia.w	sp!, {r3, r4, r5, lr}
 8001204:	f000 b8dc 	b.w	80013c0 <__malloc_unlock>
 8001208:	42a3      	cmp	r3, r4
 800120a:	d908      	bls.n	800121e <_free_r+0x42>
 800120c:	6820      	ldr	r0, [r4, #0]
 800120e:	1821      	adds	r1, r4, r0
 8001210:	428b      	cmp	r3, r1
 8001212:	bf01      	itttt	eq
 8001214:	6819      	ldreq	r1, [r3, #0]
 8001216:	685b      	ldreq	r3, [r3, #4]
 8001218:	1809      	addeq	r1, r1, r0
 800121a:	6021      	streq	r1, [r4, #0]
 800121c:	e7ed      	b.n	80011fa <_free_r+0x1e>
 800121e:	461a      	mov	r2, r3
 8001220:	685b      	ldr	r3, [r3, #4]
 8001222:	b10b      	cbz	r3, 8001228 <_free_r+0x4c>
 8001224:	42a3      	cmp	r3, r4
 8001226:	d9fa      	bls.n	800121e <_free_r+0x42>
 8001228:	6811      	ldr	r1, [r2, #0]
 800122a:	1850      	adds	r0, r2, r1
 800122c:	42a0      	cmp	r0, r4
 800122e:	d10b      	bne.n	8001248 <_free_r+0x6c>
 8001230:	6820      	ldr	r0, [r4, #0]
 8001232:	4401      	add	r1, r0
 8001234:	1850      	adds	r0, r2, r1
 8001236:	4283      	cmp	r3, r0
 8001238:	6011      	str	r1, [r2, #0]
 800123a:	d1e0      	bne.n	80011fe <_free_r+0x22>
 800123c:	6818      	ldr	r0, [r3, #0]
 800123e:	685b      	ldr	r3, [r3, #4]
 8001240:	6053      	str	r3, [r2, #4]
 8001242:	4408      	add	r0, r1
 8001244:	6010      	str	r0, [r2, #0]
 8001246:	e7da      	b.n	80011fe <_free_r+0x22>
 8001248:	d902      	bls.n	8001250 <_free_r+0x74>
 800124a:	230c      	movs	r3, #12
 800124c:	602b      	str	r3, [r5, #0]
 800124e:	e7d6      	b.n	80011fe <_free_r+0x22>
 8001250:	6820      	ldr	r0, [r4, #0]
 8001252:	1821      	adds	r1, r4, r0
 8001254:	428b      	cmp	r3, r1
 8001256:	bf04      	itt	eq
 8001258:	6819      	ldreq	r1, [r3, #0]
 800125a:	685b      	ldreq	r3, [r3, #4]
 800125c:	6063      	str	r3, [r4, #4]
 800125e:	bf04      	itt	eq
 8001260:	1809      	addeq	r1, r1, r0
 8001262:	6021      	streq	r1, [r4, #0]
 8001264:	6054      	str	r4, [r2, #4]
 8001266:	e7ca      	b.n	80011fe <_free_r+0x22>
 8001268:	bd38      	pop	{r3, r4, r5, pc}
 800126a:	bf00      	nop
 800126c:	200005f4 	.word	0x200005f4

08001270 <sbrk_aligned>:
 8001270:	b570      	push	{r4, r5, r6, lr}
 8001272:	4e0f      	ldr	r6, [pc, #60]	@ (80012b0 <sbrk_aligned+0x40>)
 8001274:	460c      	mov	r4, r1
 8001276:	6831      	ldr	r1, [r6, #0]
 8001278:	4605      	mov	r5, r0
 800127a:	b911      	cbnz	r1, 8001282 <sbrk_aligned+0x12>
 800127c:	f000 fcb0 	bl	8001be0 <_sbrk_r>
 8001280:	6030      	str	r0, [r6, #0]
 8001282:	4621      	mov	r1, r4
 8001284:	4628      	mov	r0, r5
 8001286:	f000 fcab 	bl	8001be0 <_sbrk_r>
 800128a:	1c43      	adds	r3, r0, #1
 800128c:	d103      	bne.n	8001296 <sbrk_aligned+0x26>
 800128e:	f04f 34ff 	mov.w	r4, #4294967295
 8001292:	4620      	mov	r0, r4
 8001294:	bd70      	pop	{r4, r5, r6, pc}
 8001296:	1cc4      	adds	r4, r0, #3
 8001298:	f024 0403 	bic.w	r4, r4, #3
 800129c:	42a0      	cmp	r0, r4
 800129e:	d0f8      	beq.n	8001292 <sbrk_aligned+0x22>
 80012a0:	1a21      	subs	r1, r4, r0
 80012a2:	4628      	mov	r0, r5
 80012a4:	f000 fc9c 	bl	8001be0 <_sbrk_r>
 80012a8:	3001      	adds	r0, #1
 80012aa:	d1f2      	bne.n	8001292 <sbrk_aligned+0x22>
 80012ac:	e7ef      	b.n	800128e <sbrk_aligned+0x1e>
 80012ae:	bf00      	nop
 80012b0:	200005f0 	.word	0x200005f0

080012b4 <_malloc_r>:
 80012b4:	e92d 43f8 	stmdb	sp!, {r3, r4, r5, r6, r7, r8, r9, lr}
 80012b8:	1ccd      	adds	r5, r1, #3
 80012ba:	f025 0503 	bic.w	r5, r5, #3
 80012be:	3508      	adds	r5, #8
 80012c0:	2d0c      	cmp	r5, #12
 80012c2:	bf38      	it	cc
 80012c4:	250c      	movcc	r5, #12
 80012c6:	2d00      	cmp	r5, #0
 80012c8:	4606      	mov	r6, r0
 80012ca:	db01      	blt.n	80012d0 <_malloc_r+0x1c>
 80012cc:	42a9      	cmp	r1, r5
 80012ce:	d904      	bls.n	80012da <_malloc_r+0x26>
 80012d0:	230c      	movs	r3, #12
 80012d2:	6033      	str	r3, [r6, #0]
 80012d4:	2000      	movs	r0, #0
 80012d6:	e8bd 83f8 	ldmia.w	sp!, {r3, r4, r5, r6, r7, r8, r9, pc}
 80012da:	f8df 80d4 	ldr.w	r8, [pc, #212]	@ 80013b0 <_malloc_r+0xfc>
 80012de:	f000 f869 	bl	80013b4 <__malloc_lock>
 80012e2:	f8d8 3000 	ldr.w	r3, [r8]
 80012e6:	461c      	mov	r4, r3
 80012e8:	bb44      	cbnz	r4, 800133c <_malloc_r+0x88>
 80012ea:	4629      	mov	r1, r5
 80012ec:	4630      	mov	r0, r6
 80012ee:	f7ff ffbf 	bl	8001270 <sbrk_aligned>
 80012f2:	1c43      	adds	r3, r0, #1
 80012f4:	4604      	mov	r4, r0
 80012f6:	d158      	bne.n	80013aa <_malloc_r+0xf6>
 80012f8:	f8d8 4000 	ldr.w	r4, [r8]
 80012fc:	4627      	mov	r7, r4
 80012fe:	2f00      	cmp	r7, #0
 8001300:	d143      	bne.n	800138a <_malloc_r+0xd6>
 8001302:	2c00      	cmp	r4, #0
 8001304:	d04b      	beq.n	800139e <_malloc_r+0xea>
 8001306:	6823      	ldr	r3, [r4, #0]
 8001308:	4639      	mov	r1, r7
 800130a:	4630      	mov	r0, r6
 800130c:	eb04 0903 	add.w	r9, r4, r3
 8001310:	f000 fc66 	bl	8001be0 <_sbrk_r>
 8001314:	4581      	cmp	r9, r0
 8001316:	d142      	bne.n	800139e <_malloc_r+0xea>
 8001318:	6821      	ldr	r1, [r4, #0]
 800131a:	1a6d      	subs	r5, r5, r1
 800131c:	4629      	mov	r1, r5
 800131e:	4630      	mov	r0, r6
 8001320:	f7ff ffa6 	bl	8001270 <sbrk_aligned>
 8001324:	3001      	adds	r0, #1
 8001326:	d03a      	beq.n	800139e <_malloc_r+0xea>
 8001328:	6823      	ldr	r3, [r4, #0]
 800132a:	442b      	add	r3, r5
 800132c:	6023      	str	r3, [r4, #0]
 800132e:	f8d8 3000 	ldr.w	r3, [r8]
 8001332:	685a      	ldr	r2, [r3, #4]
 8001334:	bb62      	cbnz	r2, 8001390 <_malloc_r+0xdc>
 8001336:	f8c8 7000 	str.w	r7, [r8]
 800133a:	e00f      	b.n	800135c <_malloc_r+0xa8>
 800133c:	6822      	ldr	r2, [r4, #0]
 800133e:	1b52      	subs	r2, r2, r5
 8001340:	d420      	bmi.n	8001384 <_malloc_r+0xd0>
 8001342:	2a0b      	cmp	r2, #11
 8001344:	d917      	bls.n	8001376 <_malloc_r+0xc2>
 8001346:	1961      	adds	r1, r4, r5
 8001348:	42a3      	cmp	r3, r4
 800134a:	6025      	str	r5, [r4, #0]
 800134c:	bf18      	it	ne
 800134e:	6059      	strne	r1, [r3, #4]
 8001350:	6863      	ldr	r3, [r4, #4]
 8001352:	bf08      	it	eq
 8001354:	f8c8 1000 	streq.w	r1, [r8]
 8001358:	5162      	str	r2, [r4, r5]
 800135a:	604b      	str	r3, [r1, #4]
 800135c:	4630      	mov	r0, r6
 800135e:	f000 f82f 	bl	80013c0 <__malloc_unlock>
 8001362:	f104 000b 	add.w	r0, r4, #11
 8001366:	1d23      	adds	r3, r4, #4
 8001368:	f020 0007 	bic.w	r0, r0, #7
 800136c:	1ac2      	subs	r2, r0, r3
 800136e:	bf1c      	itt	ne
 8001370:	1a1b      	subne	r3, r3, r0
 8001372:	50a3      	strne	r3, [r4, r2]
 8001374:	e7af      	b.n	80012d6 <_malloc_r+0x22>
 8001376:	6862      	ldr	r2, [r4, #4]
 8001378:	42a3      	cmp	r3, r4
 800137a:	bf0c      	ite	eq
 800137c:	f8c8 2000 	streq.w	r2, [r8]
 8001380:	605a      	strne	r2, [r3, #4]
 8001382:	e7eb      	b.n	800135c <_malloc_r+0xa8>
 8001384:	4623      	mov	r3, r4
 8001386:	6864      	ldr	r4, [r4, #4]
 8001388:	e7ae      	b.n	80012e8 <_malloc_r+0x34>
 800138a:	463c      	mov	r4, r7
 800138c:	687f      	ldr	r7, [r7, #4]
 800138e:	e7b6      	b.n	80012fe <_malloc_r+0x4a>
 8001390:	461a      	mov	r2, r3
 8001392:	685b      	ldr	r3, [r3, #4]
 8001394:	42a3      	cmp	r3, r4
 8001396:	d1fb      	bne.n	8001390 <_malloc_r+0xdc>
 8001398:	2300      	movs	r3, #0
 800139a:	6053      	str	r3, [r2, #4]
 800139c:	e7de      	b.n	800135c <_malloc_r+0xa8>
 800139e:	230c      	movs	r3, #12
 80013a0:	6033      	str	r3, [r6, #0]
 80013a2:	4630      	mov	r0, r6
 80013a4:	f000 f80c 	bl	80013c0 <__malloc_unlock>
 80013a8:	e794      	b.n	80012d4 <_malloc_r+0x20>
 80013aa:	6005      	str	r5, [r0, #0]
 80013ac:	e7d6      	b.n	800135c <_malloc_r+0xa8>
 80013ae:	bf00      	nop
 80013b0:	200005f4 	.word	0x200005f4

080013b4 <__malloc_lock>:
 80013b4:	4801      	ldr	r0, [pc, #4]	@ (80013bc <__malloc_lock+0x8>)
 80013b6:	f7ff bf0e 	b.w	80011d6 <__retarget_lock_acquire_recursive>
 80013ba:	bf00      	nop
 80013bc:	200005ec 	.word	0x200005ec

080013c0 <__malloc_unlock>:
 80013c0:	4801      	ldr	r0, [pc, #4]	@ (80013c8 <__malloc_unlock+0x8>)
 80013c2:	f7ff bf09 	b.w	80011d8 <__retarget_lock_release_recursive>
 80013c6:	bf00      	nop
 80013c8:	200005ec 	.word	0x200005ec

080013cc <__sfputc_r>:
 80013cc:	6893      	ldr	r3, [r2, #8]
 80013ce:	3b01      	subs	r3, #1
 80013d0:	2b00      	cmp	r3, #0
 80013d2:	b410      	push	{r4}
 80013d4:	6093      	str	r3, [r2, #8]
 80013d6:	da07      	bge.n	80013e8 <__sfputc_r+0x1c>
 80013d8:	6994      	ldr	r4, [r2, #24]
 80013da:	42a3      	cmp	r3, r4
 80013dc:	db01      	blt.n	80013e2 <__sfputc_r+0x16>
 80013de:	290a      	cmp	r1, #10
 80013e0:	d102      	bne.n	80013e8 <__sfputc_r+0x1c>
 80013e2:	bc10      	pop	{r4}
 80013e4:	f000 bb68 	b.w	8001ab8 <__swbuf_r>
 80013e8:	6813      	ldr	r3, [r2, #0]
 80013ea:	1c58      	adds	r0, r3, #1
 80013ec:	6010      	str	r0, [r2, #0]
 80013ee:	7019      	strb	r1, [r3, #0]
 80013f0:	4608      	mov	r0, r1
 80013f2:	bc10      	pop	{r4}
 80013f4:	4770      	bx	lr

080013f6 <__sfputs_r>:
 80013f6:	b5f8      	push	{r3, r4, r5, r6, r7, lr}
 80013f8:	4606      	mov	r6, r0
 80013fa:	460f      	mov	r7, r1
 80013fc:	4614      	mov	r4, r2
 80013fe:	18d5      	adds	r5, r2, r3
 8001400:	42ac      	cmp	r4, r5
 8001402:	d101      	bne.n	8001408 <__sfputs_r+0x12>
 8001404:	2000      	movs	r0, #0
 8001406:	e007      	b.n	8001418 <__sfputs_r+0x22>
 8001408:	f814 1b01 	ldrb.w	r1, [r4], #1
 800140c:	463a      	mov	r2, r7
 800140e:	4630      	mov	r0, r6
 8001410:	f7ff ffdc 	bl	80013cc <__sfputc_r>
 8001414:	1c43      	adds	r3, r0, #1
 8001416:	d1f3      	bne.n	8001400 <__sfputs_r+0xa>
 8001418:	bdf8      	pop	{r3, r4, r5, r6, r7, pc}
	...

0800141c <_vfiprintf_r>:
 800141c:	e92d 4ff0 	stmdb	sp!, {r4, r5, r6, r7, r8, r9, sl, fp, lr}
 8001420:	460d      	mov	r5, r1
 8001422:	b09d      	sub	sp, #116	@ 0x74
 8001424:	4614      	mov	r4, r2
 8001426:	4698      	mov	r8, r3
 8001428:	4606      	mov	r6, r0
 800142a:	b118      	cbz	r0, 8001434 <_vfiprintf_r+0x18>
 800142c:	6a03      	ldr	r3, [r0, #32]
 800142e:	b90b      	cbnz	r3, 8001434 <_vfiprintf_r+0x18>
 8001430:	f7ff fdcc 	bl	8000fcc <__sinit>
 8001434:	6e6b      	ldr	r3, [r5, #100]	@ 0x64
 8001436:	07d9      	lsls	r1, r3, #31
 8001438:	d405      	bmi.n	8001446 <_vfiprintf_r+0x2a>
 800143a:	89ab      	ldrh	r3, [r5, #12]
 800143c:	059a      	lsls	r2, r3, #22
 800143e:	d402      	bmi.n	8001446 <_vfiprintf_r+0x2a>
 8001440:	6da8      	ldr	r0, [r5, #88]	@ 0x58
 8001442:	f7ff fec8 	bl	80011d6 <__retarget_lock_acquire_recursive>
 8001446:	89ab      	ldrh	r3, [r5, #12]
 8001448:	071b      	lsls	r3, r3, #28
 800144a:	d501      	bpl.n	8001450 <_vfiprintf_r+0x34>
 800144c:	692b      	ldr	r3, [r5, #16]
 800144e:	b99b      	cbnz	r3, 8001478 <_vfiprintf_r+0x5c>
 8001450:	4629      	mov	r1, r5
 8001452:	4630      	mov	r0, r6
 8001454:	f000 fb6e 	bl	8001b34 <__swsetup_r>
 8001458:	b170      	cbz	r0, 8001478 <_vfiprintf_r+0x5c>
 800145a:	6e6b      	ldr	r3, [r5, #100]	@ 0x64
 800145c:	07dc      	lsls	r4, r3, #31
 800145e:	d504      	bpl.n	800146a <_vfiprintf_r+0x4e>
 8001460:	f04f 30ff 	mov.w	r0, #4294967295
 8001464:	b01d      	add	sp, #116	@ 0x74
 8001466:	e8bd 8ff0 	ldmia.w	sp!, {r4, r5, r6, r7, r8, r9, sl, fp, pc}
 800146a:	89ab      	ldrh	r3, [r5, #12]
 800146c:	0598      	lsls	r0, r3, #22
 800146e:	d4f7      	bmi.n	8001460 <_vfiprintf_r+0x44>
 8001470:	6da8      	ldr	r0, [r5, #88]	@ 0x58
 8001472:	f7ff feb1 	bl	80011d8 <__retarget_lock_release_recursive>
 8001476:	e7f3      	b.n	8001460 <_vfiprintf_r+0x44>
 8001478:	2300      	movs	r3, #0
 800147a:	9309      	str	r3, [sp, #36]	@ 0x24
 800147c:	2320      	movs	r3, #32
 800147e:	f88d 3029 	strb.w	r3, [sp, #41]	@ 0x29
 8001482:	f8cd 800c 	str.w	r8, [sp, #12]
 8001486:	2330      	movs	r3, #48	@ 0x30
 8001488:	f8df 81ac 	ldr.w	r8, [pc, #428]	@ 8001638 <_vfiprintf_r+0x21c>
 800148c:	f88d 302a 	strb.w	r3, [sp, #42]	@ 0x2a
 8001490:	f04f 0901 	mov.w	r9, #1
 8001494:	4623      	mov	r3, r4
 8001496:	469a      	mov	sl, r3
 8001498:	f813 2b01 	ldrb.w	r2, [r3], #1
 800149c:	b10a      	cbz	r2, 80014a2 <_vfiprintf_r+0x86>
 800149e:	2a25      	cmp	r2, #37	@ 0x25
 80014a0:	d1f9      	bne.n	8001496 <_vfiprintf_r+0x7a>
 80014a2:	ebba 0b04 	subs.w	fp, sl, r4
 80014a6:	d00b      	beq.n	80014c0 <_vfiprintf_r+0xa4>
 80014a8:	465b      	mov	r3, fp
 80014aa:	4622      	mov	r2, r4
 80014ac:	4629      	mov	r1, r5
 80014ae:	4630      	mov	r0, r6
 80014b0:	f7ff ffa1 	bl	80013f6 <__sfputs_r>
 80014b4:	3001      	adds	r0, #1
 80014b6:	f000 80a7 	beq.w	8001608 <_vfiprintf_r+0x1ec>
 80014ba:	9a09      	ldr	r2, [sp, #36]	@ 0x24
 80014bc:	445a      	add	r2, fp
 80014be:	9209      	str	r2, [sp, #36]	@ 0x24
 80014c0:	f89a 3000 	ldrb.w	r3, [sl]
 80014c4:	2b00      	cmp	r3, #0
 80014c6:	f000 809f 	beq.w	8001608 <_vfiprintf_r+0x1ec>
 80014ca:	2300      	movs	r3, #0
 80014cc:	f04f 32ff 	mov.w	r2, #4294967295
 80014d0:	e9cd 2305 	strd	r2, r3, [sp, #20]
 80014d4:	f10a 0a01 	add.w	sl, sl, #1
 80014d8:	9304      	str	r3, [sp, #16]
 80014da:	9307      	str	r3, [sp, #28]
 80014dc:	f88d 3053 	strb.w	r3, [sp, #83]	@ 0x53
 80014e0:	931a      	str	r3, [sp, #104]	@ 0x68
 80014e2:	4654      	mov	r4, sl
 80014e4:	2205      	movs	r2, #5
 80014e6:	f814 1b01 	ldrb.w	r1, [r4], #1
 80014ea:	4853      	ldr	r0, [pc, #332]	@ (8001638 <_vfiprintf_r+0x21c>)
 80014ec:	f7fe fe70 	bl	80001d0 <memchr>
 80014f0:	9a04      	ldr	r2, [sp, #16]
 80014f2:	b9d8      	cbnz	r0, 800152c <_vfiprintf_r+0x110>
 80014f4:	06d1      	lsls	r1, r2, #27
 80014f6:	bf44      	itt	mi
 80014f8:	2320      	movmi	r3, #32
 80014fa:	f88d 3053 	strbmi.w	r3, [sp, #83]	@ 0x53
 80014fe:	0713      	lsls	r3, r2, #28
 8001500:	bf44      	itt	mi
 8001502:	232b      	movmi	r3, #43	@ 0x2b
 8001504:	f88d 3053 	strbmi.w	r3, [sp, #83]	@ 0x53
 8001508:	f89a 3000 	ldrb.w	r3, [sl]
 800150c:	2b2a      	cmp	r3, #42	@ 0x2a
 800150e:	d015      	beq.n	800153c <_vfiprintf_r+0x120>
 8001510:	9a07      	ldr	r2, [sp, #28]
 8001512:	4654      	mov	r4, sl
 8001514:	2000      	movs	r0, #0
 8001516:	f04f 0c0a 	mov.w	ip, #10
 800151a:	4621      	mov	r1, r4
 800151c:	f811 3b01 	ldrb.w	r3, [r1], #1
 8001520:	3b30      	subs	r3, #48	@ 0x30
 8001522:	2b09      	cmp	r3, #9
 8001524:	d94b      	bls.n	80015be <_vfiprintf_r+0x1a2>
 8001526:	b1b0      	cbz	r0, 8001556 <_vfiprintf_r+0x13a>
 8001528:	9207      	str	r2, [sp, #28]
 800152a:	e014      	b.n	8001556 <_vfiprintf_r+0x13a>
 800152c:	eba0 0308 	sub.w	r3, r0, r8
 8001530:	fa09 f303 	lsl.w	r3, r9, r3
 8001534:	4313      	orrs	r3, r2
 8001536:	9304      	str	r3, [sp, #16]
 8001538:	46a2      	mov	sl, r4
 800153a:	e7d2      	b.n	80014e2 <_vfiprintf_r+0xc6>
 800153c:	9b03      	ldr	r3, [sp, #12]
 800153e:	1d19      	adds	r1, r3, #4
 8001540:	681b      	ldr	r3, [r3, #0]
 8001542:	9103      	str	r1, [sp, #12]
 8001544:	2b00      	cmp	r3, #0
 8001546:	bfbb      	ittet	lt
 8001548:	425b      	neglt	r3, r3
 800154a:	f042 0202 	orrlt.w	r2, r2, #2
 800154e:	9307      	strge	r3, [sp, #28]
 8001550:	9307      	strlt	r3, [sp, #28]
 8001552:	bfb8      	it	lt
 8001554:	9204      	strlt	r2, [sp, #16]
 8001556:	7823      	ldrb	r3, [r4, #0]
 8001558:	2b2e      	cmp	r3, #46	@ 0x2e
 800155a:	d10a      	bne.n	8001572 <_vfiprintf_r+0x156>
 800155c:	7863      	ldrb	r3, [r4, #1]
 800155e:	2b2a      	cmp	r3, #42	@ 0x2a
 8001560:	d132      	bne.n	80015c8 <_vfiprintf_r+0x1ac>
 8001562:	9b03      	ldr	r3, [sp, #12]
 8001564:	1d1a      	adds	r2, r3, #4
 8001566:	681b      	ldr	r3, [r3, #0]
 8001568:	9203      	str	r2, [sp, #12]
 800156a:	ea43 73e3 	orr.w	r3, r3, r3, asr #31
 800156e:	3402      	adds	r4, #2
 8001570:	9305      	str	r3, [sp, #20]
 8001572:	f8df a0c8 	ldr.w	sl, [pc, #200]	@ 800163c <_vfiprintf_r+0x220>
 8001576:	7821      	ldrb	r1, [r4, #0]
 8001578:	2203      	movs	r2, #3
 800157a:	4650      	mov	r0, sl
 800157c:	f7fe fe28 	bl	80001d0 <memchr>
 8001580:	b138      	cbz	r0, 8001592 <_vfiprintf_r+0x176>
 8001582:	9b04      	ldr	r3, [sp, #16]
 8001584:	eba0 000a 	sub.w	r0, r0, sl
 8001588:	2240      	movs	r2, #64	@ 0x40
 800158a:	4082      	lsls	r2, r0
 800158c:	4313      	orrs	r3, r2
 800158e:	3401      	adds	r4, #1
 8001590:	9304      	str	r3, [sp, #16]
 8001592:	f814 1b01 	ldrb.w	r1, [r4], #1
 8001596:	482a      	ldr	r0, [pc, #168]	@ (8001640 <_vfiprintf_r+0x224>)
 8001598:	f88d 1028 	strb.w	r1, [sp, #40]	@ 0x28
 800159c:	2206      	movs	r2, #6
 800159e:	f7fe fe17 	bl	80001d0 <memchr>
 80015a2:	2800      	cmp	r0, #0
 80015a4:	d03f      	beq.n	8001626 <_vfiprintf_r+0x20a>
 80015a6:	4b27      	ldr	r3, [pc, #156]	@ (8001644 <_vfiprintf_r+0x228>)
 80015a8:	bb1b      	cbnz	r3, 80015f2 <_vfiprintf_r+0x1d6>
 80015aa:	9b03      	ldr	r3, [sp, #12]
 80015ac:	3307      	adds	r3, #7
 80015ae:	f023 0307 	bic.w	r3, r3, #7
 80015b2:	3308      	adds	r3, #8
 80015b4:	9303      	str	r3, [sp, #12]
 80015b6:	9b09      	ldr	r3, [sp, #36]	@ 0x24
 80015b8:	443b      	add	r3, r7
 80015ba:	9309      	str	r3, [sp, #36]	@ 0x24
 80015bc:	e76a      	b.n	8001494 <_vfiprintf_r+0x78>
 80015be:	fb0c 3202 	mla	r2, ip, r2, r3
 80015c2:	460c      	mov	r4, r1
 80015c4:	2001      	movs	r0, #1
 80015c6:	e7a8      	b.n	800151a <_vfiprintf_r+0xfe>
 80015c8:	2300      	movs	r3, #0
 80015ca:	3401      	adds	r4, #1
 80015cc:	9305      	str	r3, [sp, #20]
 80015ce:	4619      	mov	r1, r3
 80015d0:	f04f 0c0a 	mov.w	ip, #10
 80015d4:	4620      	mov	r0, r4
 80015d6:	f810 2b01 	ldrb.w	r2, [r0], #1
 80015da:	3a30      	subs	r2, #48	@ 0x30
 80015dc:	2a09      	cmp	r2, #9
 80015de:	d903      	bls.n	80015e8 <_vfiprintf_r+0x1cc>
 80015e0:	2b00      	cmp	r3, #0
 80015e2:	d0c6      	beq.n	8001572 <_vfiprintf_r+0x156>
 80015e4:	9105      	str	r1, [sp, #20]
 80015e6:	e7c4      	b.n	8001572 <_vfiprintf_r+0x156>
 80015e8:	fb0c 2101 	mla	r1, ip, r1, r2
 80015ec:	4604      	mov	r4, r0
 80015ee:	2301      	movs	r3, #1
 80015f0:	e7f0      	b.n	80015d4 <_vfiprintf_r+0x1b8>
 80015f2:	ab03      	add	r3, sp, #12
 80015f4:	9300      	str	r3, [sp, #0]
 80015f6:	462a      	mov	r2, r5
 80015f8:	4b13      	ldr	r3, [pc, #76]	@ (8001648 <_vfiprintf_r+0x22c>)
 80015fa:	a904      	add	r1, sp, #16
 80015fc:	4630      	mov	r0, r6
 80015fe:	f3af 8000 	nop.w
 8001602:	4607      	mov	r7, r0
 8001604:	1c78      	adds	r0, r7, #1
 8001606:	d1d6      	bne.n	80015b6 <_vfiprintf_r+0x19a>
 8001608:	6e6b      	ldr	r3, [r5, #100]	@ 0x64
 800160a:	07d9      	lsls	r1, r3, #31
 800160c:	d405      	bmi.n	800161a <_vfiprintf_r+0x1fe>
 800160e:	89ab      	ldrh	r3, [r5, #12]
 8001610:	059a      	lsls	r2, r3, #22
 8001612:	d402      	bmi.n	800161a <_vfiprintf_r+0x1fe>
 8001614:	6da8      	ldr	r0, [r5, #88]	@ 0x58
 8001616:	f7ff fddf 	bl	80011d8 <__retarget_lock_release_recursive>
 800161a:	89ab      	ldrh	r3, [r5, #12]
 800161c:	065b      	lsls	r3, r3, #25
 800161e:	f53f af1f 	bmi.w	8001460 <_vfiprintf_r+0x44>
 8001622:	9809      	ldr	r0, [sp, #36]	@ 0x24
 8001624:	e71e      	b.n	8001464 <_vfiprintf_r+0x48>
 8001626:	ab03      	add	r3, sp, #12
 8001628:	9300      	str	r3, [sp, #0]
 800162a:	462a      	mov	r2, r5
 800162c:	4b06      	ldr	r3, [pc, #24]	@ (8001648 <_vfiprintf_r+0x22c>)
 800162e:	a904      	add	r1, sp, #16
 8001630:	4630      	mov	r0, r6
 8001632:	f000 f879 	bl	8001728 <_printf_i>
 8001636:	e7e4      	b.n	8001602 <_vfiprintf_r+0x1e6>
 8001638:	08001d33 	.word	0x08001d33
 800163c:	08001d39 	.word	0x08001d39
 8001640:	08001d3d 	.word	0x08001d3d
 8001644:	00000000 	.word	0x00000000
 8001648:	080013f7 	.word	0x080013f7

0800164c <_printf_common>:
 800164c:	e92d 47f0 	stmdb	sp!, {r4, r5, r6, r7, r8, r9, sl, lr}
 8001650:	4616      	mov	r6, r2
 8001652:	4698      	mov	r8, r3
 8001654:	688a      	ldr	r2, [r1, #8]
 8001656:	690b      	ldr	r3, [r1, #16]
 8001658:	f8dd 9020 	ldr.w	r9, [sp, #32]
 800165c:	4293      	cmp	r3, r2
 800165e:	bfb8      	it	lt
 8001660:	4613      	movlt	r3, r2
 8001662:	6033      	str	r3, [r6, #0]
 8001664:	f891 2043 	ldrb.w	r2, [r1, #67]	@ 0x43
 8001668:	4607      	mov	r7, r0
 800166a:	460c      	mov	r4, r1
 800166c:	b10a      	cbz	r2, 8001672 <_printf_common+0x26>
 800166e:	3301      	adds	r3, #1
 8001670:	6033      	str	r3, [r6, #0]
 8001672:	6823      	ldr	r3, [r4, #0]
 8001674:	0699      	lsls	r1, r3, #26
 8001676:	bf42      	ittt	mi
 8001678:	6833      	ldrmi	r3, [r6, #0]
 800167a:	3302      	addmi	r3, #2
 800167c:	6033      	strmi	r3, [r6, #0]
 800167e:	6825      	ldr	r5, [r4, #0]
 8001680:	f015 0506 	ands.w	r5, r5, #6
 8001684:	d106      	bne.n	8001694 <_printf_common+0x48>
 8001686:	f104 0a19 	add.w	sl, r4, #25
 800168a:	68e3      	ldr	r3, [r4, #12]
 800168c:	6832      	ldr	r2, [r6, #0]
 800168e:	1a9b      	subs	r3, r3, r2
 8001690:	42ab      	cmp	r3, r5
 8001692:	dc26      	bgt.n	80016e2 <_printf_common+0x96>
 8001694:	f894 3043 	ldrb.w	r3, [r4, #67]	@ 0x43
 8001698:	6822      	ldr	r2, [r4, #0]
 800169a:	3b00      	subs	r3, #0
 800169c:	bf18      	it	ne
 800169e:	2301      	movne	r3, #1
 80016a0:	0692      	lsls	r2, r2, #26
 80016a2:	d42b      	bmi.n	80016fc <_printf_common+0xb0>
 80016a4:	f104 0243 	add.w	r2, r4, #67	@ 0x43
 80016a8:	4641      	mov	r1, r8
 80016aa:	4638      	mov	r0, r7
 80016ac:	47c8      	blx	r9
 80016ae:	3001      	adds	r0, #1
 80016b0:	d01e      	beq.n	80016f0 <_printf_common+0xa4>
 80016b2:	6823      	ldr	r3, [r4, #0]
 80016b4:	6922      	ldr	r2, [r4, #16]
 80016b6:	f003 0306 	and.w	r3, r3, #6
 80016ba:	2b04      	cmp	r3, #4
 80016bc:	bf02      	ittt	eq
 80016be:	68e5      	ldreq	r5, [r4, #12]
 80016c0:	6833      	ldreq	r3, [r6, #0]
 80016c2:	1aed      	subeq	r5, r5, r3
 80016c4:	68a3      	ldr	r3, [r4, #8]
 80016c6:	bf0c      	ite	eq
 80016c8:	ea25 75e5 	biceq.w	r5, r5, r5, asr #31
 80016cc:	2500      	movne	r5, #0
 80016ce:	4293      	cmp	r3, r2
 80016d0:	bfc4      	itt	gt
 80016d2:	1a9b      	subgt	r3, r3, r2
 80016d4:	18ed      	addgt	r5, r5, r3
 80016d6:	2600      	movs	r6, #0
 80016d8:	341a      	adds	r4, #26
 80016da:	42b5      	cmp	r5, r6
 80016dc:	d11a      	bne.n	8001714 <_printf_common+0xc8>
 80016de:	2000      	movs	r0, #0
 80016e0:	e008      	b.n	80016f4 <_printf_common+0xa8>
 80016e2:	2301      	movs	r3, #1
 80016e4:	4652      	mov	r2, sl
 80016e6:	4641      	mov	r1, r8
 80016e8:	4638      	mov	r0, r7
 80016ea:	47c8      	blx	r9
 80016ec:	3001      	adds	r0, #1
 80016ee:	d103      	bne.n	80016f8 <_printf_common+0xac>
 80016f0:	f04f 30ff 	mov.w	r0, #4294967295
 80016f4:	e8bd 87f0 	ldmia.w	sp!, {r4, r5, r6, r7, r8, r9, sl, pc}
 80016f8:	3501      	adds	r5, #1
 80016fa:	e7c6      	b.n	800168a <_printf_common+0x3e>
 80016fc:	18e1      	adds	r1, r4, r3
 80016fe:	1c5a      	adds	r2, r3, #1
 8001700:	2030      	movs	r0, #48	@ 0x30
 8001702:	f881 0043 	strb.w	r0, [r1, #67]	@ 0x43
 8001706:	4422      	add	r2, r4
 8001708:	f894 1045 	ldrb.w	r1, [r4, #69]	@ 0x45
 800170c:	f882 1043 	strb.w	r1, [r2, #67]	@ 0x43
 8001710:	3302      	adds	r3, #2
 8001712:	e7c7      	b.n	80016a4 <_printf_common+0x58>
 8001714:	2301      	movs	r3, #1
 8001716:	4622      	mov	r2, r4
 8001718:	4641      	mov	r1, r8
 800171a:	4638      	mov	r0, r7
 800171c:	47c8      	blx	r9
 800171e:	3001      	adds	r0, #1
 8001720:	d0e6      	beq.n	80016f0 <_printf_common+0xa4>
 8001722:	3601      	adds	r6, #1
 8001724:	e7d9      	b.n	80016da <_printf_common+0x8e>
	...

08001728 <_printf_i>:
 8001728:	e92d 47ff 	stmdb	sp!, {r0, r1, r2, r3, r4, r5, r6, r7, r8, r9, sl, lr}
 800172c:	7e0f      	ldrb	r7, [r1, #24]
 800172e:	9e0c      	ldr	r6, [sp, #48]	@ 0x30
 8001730:	2f78      	cmp	r7, #120	@ 0x78
 8001732:	4691      	mov	r9, r2
 8001734:	4680      	mov	r8, r0
 8001736:	460c      	mov	r4, r1
 8001738:	469a      	mov	sl, r3
 800173a:	f101 0243 	add.w	r2, r1, #67	@ 0x43
 800173e:	d807      	bhi.n	8001750 <_printf_i+0x28>
 8001740:	2f62      	cmp	r7, #98	@ 0x62
 8001742:	d80a      	bhi.n	800175a <_printf_i+0x32>
 8001744:	2f00      	cmp	r7, #0
 8001746:	f000 80d2 	beq.w	80018ee <_printf_i+0x1c6>
 800174a:	2f58      	cmp	r7, #88	@ 0x58
 800174c:	f000 80b9 	beq.w	80018c2 <_printf_i+0x19a>
 8001750:	f104 0642 	add.w	r6, r4, #66	@ 0x42
 8001754:	f884 7042 	strb.w	r7, [r4, #66]	@ 0x42
 8001758:	e03a      	b.n	80017d0 <_printf_i+0xa8>
 800175a:	f1a7 0363 	sub.w	r3, r7, #99	@ 0x63
 800175e:	2b15      	cmp	r3, #21
 8001760:	d8f6      	bhi.n	8001750 <_printf_i+0x28>
 8001762:	a101      	add	r1, pc, #4	@ (adr r1, 8001768 <_printf_i+0x40>)
 8001764:	f851 f023 	ldr.w	pc, [r1, r3, lsl #2]
 8001768:	080017c1 	.word	0x080017c1
 800176c:	080017d5 	.word	0x080017d5
 8001770:	08001751 	.word	0x08001751
 8001774:	08001751 	.word	0x08001751
 8001778:	08001751 	.word	0x08001751
 800177c:	08001751 	.word	0x08001751
 8001780:	080017d5 	.word	0x080017d5
 8001784:	08001751 	.word	0x08001751
 8001788:	08001751 	.word	0x08001751
 800178c:	08001751 	.word	0x08001751
 8001790:	08001751 	.word	0x08001751
 8001794:	080018d5 	.word	0x080018d5
 8001798:	080017ff 	.word	0x080017ff
 800179c:	0800188f 	.word	0x0800188f
 80017a0:	08001751 	.word	0x08001751
 80017a4:	08001751 	.word	0x08001751
 80017a8:	080018f7 	.word	0x080018f7
 80017ac:	08001751 	.word	0x08001751
 80017b0:	080017ff 	.word	0x080017ff
 80017b4:	08001751 	.word	0x08001751
 80017b8:	08001751 	.word	0x08001751
 80017bc:	08001897 	.word	0x08001897
 80017c0:	6833      	ldr	r3, [r6, #0]
 80017c2:	1d1a      	adds	r2, r3, #4
 80017c4:	681b      	ldr	r3, [r3, #0]
 80017c6:	6032      	str	r2, [r6, #0]
 80017c8:	f104 0642 	add.w	r6, r4, #66	@ 0x42
 80017cc:	f884 3042 	strb.w	r3, [r4, #66]	@ 0x42
 80017d0:	2301      	movs	r3, #1
 80017d2:	e09d      	b.n	8001910 <_printf_i+0x1e8>
 80017d4:	6833      	ldr	r3, [r6, #0]
 80017d6:	6820      	ldr	r0, [r4, #0]
 80017d8:	1d19      	adds	r1, r3, #4
 80017da:	6031      	str	r1, [r6, #0]
 80017dc:	0606      	lsls	r6, r0, #24
 80017de:	d501      	bpl.n	80017e4 <_printf_i+0xbc>
 80017e0:	681d      	ldr	r5, [r3, #0]
 80017e2:	e003      	b.n	80017ec <_printf_i+0xc4>
 80017e4:	0645      	lsls	r5, r0, #25
 80017e6:	d5fb      	bpl.n	80017e0 <_printf_i+0xb8>
 80017e8:	f9b3 5000 	ldrsh.w	r5, [r3]
 80017ec:	2d00      	cmp	r5, #0
 80017ee:	da03      	bge.n	80017f8 <_printf_i+0xd0>
 80017f0:	232d      	movs	r3, #45	@ 0x2d
 80017f2:	426d      	negs	r5, r5
 80017f4:	f884 3043 	strb.w	r3, [r4, #67]	@ 0x43
 80017f8:	4859      	ldr	r0, [pc, #356]	@ (8001960 <_printf_i+0x238>)
 80017fa:	230a      	movs	r3, #10
 80017fc:	e011      	b.n	8001822 <_printf_i+0xfa>
 80017fe:	6821      	ldr	r1, [r4, #0]
 8001800:	6833      	ldr	r3, [r6, #0]
 8001802:	0608      	lsls	r0, r1, #24
 8001804:	f853 5b04 	ldr.w	r5, [r3], #4
 8001808:	d402      	bmi.n	8001810 <_printf_i+0xe8>
 800180a:	0649      	lsls	r1, r1, #25
 800180c:	bf48      	it	mi
 800180e:	b2ad      	uxthmi	r5, r5
 8001810:	2f6f      	cmp	r7, #111	@ 0x6f
 8001812:	4853      	ldr	r0, [pc, #332]	@ (8001960 <_printf_i+0x238>)
 8001814:	6033      	str	r3, [r6, #0]
 8001816:	bf14      	ite	ne
 8001818:	230a      	movne	r3, #10
 800181a:	2308      	moveq	r3, #8
 800181c:	2100      	movs	r1, #0
 800181e:	f884 1043 	strb.w	r1, [r4, #67]	@ 0x43
 8001822:	6866      	ldr	r6, [r4, #4]
 8001824:	60a6      	str	r6, [r4, #8]
 8001826:	2e00      	cmp	r6, #0
 8001828:	bfa2      	ittt	ge
 800182a:	6821      	ldrge	r1, [r4, #0]
 800182c:	f021 0104 	bicge.w	r1, r1, #4
 8001830:	6021      	strge	r1, [r4, #0]
 8001832:	b90d      	cbnz	r5, 8001838 <_printf_i+0x110>
 8001834:	2e00      	cmp	r6, #0
 8001836:	d04b      	beq.n	80018d0 <_printf_i+0x1a8>
 8001838:	4616      	mov	r6, r2
 800183a:	fbb5 f1f3 	udiv	r1, r5, r3
 800183e:	fb03 5711 	mls	r7, r3, r1, r5
 8001842:	5dc7      	ldrb	r7, [r0, r7]
 8001844:	f806 7d01 	strb.w	r7, [r6, #-1]!
 8001848:	462f      	mov	r7, r5
 800184a:	42bb      	cmp	r3, r7
 800184c:	460d      	mov	r5, r1
 800184e:	d9f4      	bls.n	800183a <_printf_i+0x112>
 8001850:	2b08      	cmp	r3, #8
 8001852:	d10b      	bne.n	800186c <_printf_i+0x144>
 8001854:	6823      	ldr	r3, [r4, #0]
 8001856:	07df      	lsls	r7, r3, #31
 8001858:	d508      	bpl.n	800186c <_printf_i+0x144>
 800185a:	6923      	ldr	r3, [r4, #16]
 800185c:	6861      	ldr	r1, [r4, #4]
 800185e:	4299      	cmp	r1, r3
 8001860:	bfde      	ittt	le
 8001862:	2330      	movle	r3, #48	@ 0x30
 8001864:	f806 3c01 	strble.w	r3, [r6, #-1]
 8001868:	f106 36ff 	addle.w	r6, r6, #4294967295
 800186c:	1b92      	subs	r2, r2, r6
 800186e:	6122      	str	r2, [r4, #16]
 8001870:	f8cd a000 	str.w	sl, [sp]
 8001874:	464b      	mov	r3, r9
 8001876:	aa03      	add	r2, sp, #12
 8001878:	4621      	mov	r1, r4
 800187a:	4640      	mov	r0, r8
 800187c:	f7ff fee6 	bl	800164c <_printf_common>
 8001880:	3001      	adds	r0, #1
 8001882:	d14a      	bne.n	800191a <_printf_i+0x1f2>
 8001884:	f04f 30ff 	mov.w	r0, #4294967295
 8001888:	b004      	add	sp, #16
 800188a:	e8bd 87f0 	ldmia.w	sp!, {r4, r5, r6, r7, r8, r9, sl, pc}
 800188e:	6823      	ldr	r3, [r4, #0]
 8001890:	f043 0320 	orr.w	r3, r3, #32
 8001894:	6023      	str	r3, [r4, #0]
 8001896:	4833      	ldr	r0, [pc, #204]	@ (8001964 <_printf_i+0x23c>)
 8001898:	2778      	movs	r7, #120	@ 0x78
 800189a:	f884 7045 	strb.w	r7, [r4, #69]	@ 0x45
 800189e:	6823      	ldr	r3, [r4, #0]
 80018a0:	6831      	ldr	r1, [r6, #0]
 80018a2:	061f      	lsls	r7, r3, #24
 80018a4:	f851 5b04 	ldr.w	r5, [r1], #4
 80018a8:	d402      	bmi.n	80018b0 <_printf_i+0x188>
 80018aa:	065f      	lsls	r7, r3, #25
 80018ac:	bf48      	it	mi
 80018ae:	b2ad      	uxthmi	r5, r5
 80018b0:	6031      	str	r1, [r6, #0]
 80018b2:	07d9      	lsls	r1, r3, #31
 80018b4:	bf44      	itt	mi
 80018b6:	f043 0320 	orrmi.w	r3, r3, #32
 80018ba:	6023      	strmi	r3, [r4, #0]
 80018bc:	b11d      	cbz	r5, 80018c6 <_printf_i+0x19e>
 80018be:	2310      	movs	r3, #16
 80018c0:	e7ac      	b.n	800181c <_printf_i+0xf4>
 80018c2:	4827      	ldr	r0, [pc, #156]	@ (8001960 <_printf_i+0x238>)
 80018c4:	e7e9      	b.n	800189a <_printf_i+0x172>
 80018c6:	6823      	ldr	r3, [r4, #0]
 80018c8:	f023 0320 	bic.w	r3, r3, #32
 80018cc:	6023      	str	r3, [r4, #0]
 80018ce:	e7f6      	b.n	80018be <_printf_i+0x196>
 80018d0:	4616      	mov	r6, r2
 80018d2:	e7bd      	b.n	8001850 <_printf_i+0x128>
 80018d4:	6833      	ldr	r3, [r6, #0]
 80018d6:	6825      	ldr	r5, [r4, #0]
 80018d8:	6961      	ldr	r1, [r4, #20]
 80018da:	1d18      	adds	r0, r3, #4
 80018dc:	6030      	str	r0, [r6, #0]
 80018de:	062e      	lsls	r6, r5, #24
 80018e0:	681b      	ldr	r3, [r3, #0]
 80018e2:	d501      	bpl.n	80018e8 <_printf_i+0x1c0>
 80018e4:	6019      	str	r1, [r3, #0]
 80018e6:	e002      	b.n	80018ee <_printf_i+0x1c6>
 80018e8:	0668      	lsls	r0, r5, #25
 80018ea:	d5fb      	bpl.n	80018e4 <_printf_i+0x1bc>
 80018ec:	8019      	strh	r1, [r3, #0]
 80018ee:	2300      	movs	r3, #0
 80018f0:	6123      	str	r3, [r4, #16]
 80018f2:	4616      	mov	r6, r2
 80018f4:	e7bc      	b.n	8001870 <_printf_i+0x148>
 80018f6:	6833      	ldr	r3, [r6, #0]
 80018f8:	1d1a      	adds	r2, r3, #4
 80018fa:	6032      	str	r2, [r6, #0]
 80018fc:	681e      	ldr	r6, [r3, #0]
 80018fe:	6862      	ldr	r2, [r4, #4]
 8001900:	2100      	movs	r1, #0
 8001902:	4630      	mov	r0, r6
 8001904:	f7fe fc64 	bl	80001d0 <memchr>
 8001908:	b108      	cbz	r0, 800190e <_printf_i+0x1e6>
 800190a:	1b80      	subs	r0, r0, r6
 800190c:	6060      	str	r0, [r4, #4]
 800190e:	6863      	ldr	r3, [r4, #4]
 8001910:	6123      	str	r3, [r4, #16]
 8001912:	2300      	movs	r3, #0
 8001914:	f884 3043 	strb.w	r3, [r4, #67]	@ 0x43
 8001918:	e7aa      	b.n	8001870 <_printf_i+0x148>
 800191a:	6923      	ldr	r3, [r4, #16]
 800191c:	4632      	mov	r2, r6
 800191e:	4649      	mov	r1, r9
 8001920:	4640      	mov	r0, r8
 8001922:	47d0      	blx	sl
 8001924:	3001      	adds	r0, #1
 8001926:	d0ad      	beq.n	8001884 <_printf_i+0x15c>
 8001928:	6823      	ldr	r3, [r4, #0]
 800192a:	079b      	lsls	r3, r3, #30
 800192c:	d413      	bmi.n	8001956 <_printf_i+0x22e>
 800192e:	68e0      	ldr	r0, [r4, #12]
 8001930:	9b03      	ldr	r3, [sp, #12]
 8001932:	4298      	cmp	r0, r3
 8001934:	bfb8      	it	lt
 8001936:	4618      	movlt	r0, r3
 8001938:	e7a6      	b.n	8001888 <_printf_i+0x160>
 800193a:	2301      	movs	r3, #1
 800193c:	4632      	mov	r2, r6
 800193e:	4649      	mov	r1, r9
 8001940:	4640      	mov	r0, r8
 8001942:	47d0      	blx	sl
 8001944:	3001      	adds	r0, #1
 8001946:	d09d      	beq.n	8001884 <_printf_i+0x15c>
 8001948:	3501      	adds	r5, #1
 800194a:	68e3      	ldr	r3, [r4, #12]
 800194c:	9903      	ldr	r1, [sp, #12]
 800194e:	1a5b      	subs	r3, r3, r1
 8001950:	42ab      	cmp	r3, r5
 8001952:	dcf2      	bgt.n	800193a <_printf_i+0x212>
 8001954:	e7eb      	b.n	800192e <_printf_i+0x206>
 8001956:	2500      	movs	r5, #0
 8001958:	f104 0619 	add.w	r6, r4, #25
 800195c:	e7f5      	b.n	800194a <_printf_i+0x222>
 800195e:	bf00      	nop
 8001960:	08001d44 	.word	0x08001d44
 8001964:	08001d55 	.word	0x08001d55

08001968 <__sflush_r>:
 8001968:	f9b1 200c 	ldrsh.w	r2, [r1, #12]
 800196c:	b5f8      	push	{r3, r4, r5, r6, r7, lr}
 800196e:	0716      	lsls	r6, r2, #28
 8001970:	4605      	mov	r5, r0
 8001972:	460c      	mov	r4, r1
 8001974:	d454      	bmi.n	8001a20 <__sflush_r+0xb8>
 8001976:	684b      	ldr	r3, [r1, #4]
 8001978:	2b00      	cmp	r3, #0
 800197a:	dc02      	bgt.n	8001982 <__sflush_r+0x1a>
 800197c:	6c0b      	ldr	r3, [r1, #64]	@ 0x40
 800197e:	2b00      	cmp	r3, #0
 8001980:	dd48      	ble.n	8001a14 <__sflush_r+0xac>
 8001982:	6ae6      	ldr	r6, [r4, #44]	@ 0x2c
 8001984:	2e00      	cmp	r6, #0
 8001986:	d045      	beq.n	8001a14 <__sflush_r+0xac>
 8001988:	2300      	movs	r3, #0
 800198a:	f412 5280 	ands.w	r2, r2, #4096	@ 0x1000
 800198e:	682f      	ldr	r7, [r5, #0]
 8001990:	6a21      	ldr	r1, [r4, #32]
 8001992:	602b      	str	r3, [r5, #0]
 8001994:	d030      	beq.n	80019f8 <__sflush_r+0x90>
 8001996:	6d62      	ldr	r2, [r4, #84]	@ 0x54
 8001998:	89a3      	ldrh	r3, [r4, #12]
 800199a:	0759      	lsls	r1, r3, #29
 800199c:	d505      	bpl.n	80019aa <__sflush_r+0x42>
 800199e:	6863      	ldr	r3, [r4, #4]
 80019a0:	1ad2      	subs	r2, r2, r3
 80019a2:	6b63      	ldr	r3, [r4, #52]	@ 0x34
 80019a4:	b10b      	cbz	r3, 80019aa <__sflush_r+0x42>
 80019a6:	6c23      	ldr	r3, [r4, #64]	@ 0x40
 80019a8:	1ad2      	subs	r2, r2, r3
 80019aa:	2300      	movs	r3, #0
 80019ac:	6ae6      	ldr	r6, [r4, #44]	@ 0x2c
 80019ae:	6a21      	ldr	r1, [r4, #32]
 80019b0:	4628      	mov	r0, r5
 80019b2:	47b0      	blx	r6
 80019b4:	1c43      	adds	r3, r0, #1
 80019b6:	89a3      	ldrh	r3, [r4, #12]
 80019b8:	d106      	bne.n	80019c8 <__sflush_r+0x60>
 80019ba:	6829      	ldr	r1, [r5, #0]
 80019bc:	291d      	cmp	r1, #29
 80019be:	d82b      	bhi.n	8001a18 <__sflush_r+0xb0>
 80019c0:	4a28      	ldr	r2, [pc, #160]	@ (8001a64 <__sflush_r+0xfc>)
 80019c2:	410a      	asrs	r2, r1
 80019c4:	07d6      	lsls	r6, r2, #31
 80019c6:	d427      	bmi.n	8001a18 <__sflush_r+0xb0>
 80019c8:	2200      	movs	r2, #0
 80019ca:	6062      	str	r2, [r4, #4]
 80019cc:	04d9      	lsls	r1, r3, #19
 80019ce:	6922      	ldr	r2, [r4, #16]
 80019d0:	6022      	str	r2, [r4, #0]
 80019d2:	d504      	bpl.n	80019de <__sflush_r+0x76>
 80019d4:	1c42      	adds	r2, r0, #1
 80019d6:	d101      	bne.n	80019dc <__sflush_r+0x74>
 80019d8:	682b      	ldr	r3, [r5, #0]
 80019da:	b903      	cbnz	r3, 80019de <__sflush_r+0x76>
 80019dc:	6560      	str	r0, [r4, #84]	@ 0x54
 80019de:	6b61      	ldr	r1, [r4, #52]	@ 0x34
 80019e0:	602f      	str	r7, [r5, #0]
 80019e2:	b1b9      	cbz	r1, 8001a14 <__sflush_r+0xac>
 80019e4:	f104 0344 	add.w	r3, r4, #68	@ 0x44
 80019e8:	4299      	cmp	r1, r3
 80019ea:	d002      	beq.n	80019f2 <__sflush_r+0x8a>
 80019ec:	4628      	mov	r0, r5
 80019ee:	f7ff fbf5 	bl	80011dc <_free_r>
 80019f2:	2300      	movs	r3, #0
 80019f4:	6363      	str	r3, [r4, #52]	@ 0x34
 80019f6:	e00d      	b.n	8001a14 <__sflush_r+0xac>
 80019f8:	2301      	movs	r3, #1
 80019fa:	4628      	mov	r0, r5
 80019fc:	47b0      	blx	r6
 80019fe:	4602      	mov	r2, r0
 8001a00:	1c50      	adds	r0, r2, #1
 8001a02:	d1c9      	bne.n	8001998 <__sflush_r+0x30>
 8001a04:	682b      	ldr	r3, [r5, #0]
 8001a06:	2b00      	cmp	r3, #0
 8001a08:	d0c6      	beq.n	8001998 <__sflush_r+0x30>
 8001a0a:	2b1d      	cmp	r3, #29
 8001a0c:	d001      	beq.n	8001a12 <__sflush_r+0xaa>
 8001a0e:	2b16      	cmp	r3, #22
 8001a10:	d11d      	bne.n	8001a4e <__sflush_r+0xe6>
 8001a12:	602f      	str	r7, [r5, #0]
 8001a14:	2000      	movs	r0, #0
 8001a16:	e021      	b.n	8001a5c <__sflush_r+0xf4>
 8001a18:	f043 0340 	orr.w	r3, r3, #64	@ 0x40
 8001a1c:	b21b      	sxth	r3, r3
 8001a1e:	e01a      	b.n	8001a56 <__sflush_r+0xee>
 8001a20:	690f      	ldr	r7, [r1, #16]
 8001a22:	2f00      	cmp	r7, #0
 8001a24:	d0f6      	beq.n	8001a14 <__sflush_r+0xac>
 8001a26:	0793      	lsls	r3, r2, #30
 8001a28:	680e      	ldr	r6, [r1, #0]
 8001a2a:	bf08      	it	eq
 8001a2c:	694b      	ldreq	r3, [r1, #20]
 8001a2e:	600f      	str	r7, [r1, #0]
 8001a30:	bf18      	it	ne
 8001a32:	2300      	movne	r3, #0
 8001a34:	1bf6      	subs	r6, r6, r7
 8001a36:	608b      	str	r3, [r1, #8]
 8001a38:	2e00      	cmp	r6, #0
 8001a3a:	ddeb      	ble.n	8001a14 <__sflush_r+0xac>
 8001a3c:	6a21      	ldr	r1, [r4, #32]
 8001a3e:	f8d4 c028 	ldr.w	ip, [r4, #40]	@ 0x28
 8001a42:	4633      	mov	r3, r6
 8001a44:	463a      	mov	r2, r7
 8001a46:	4628      	mov	r0, r5
 8001a48:	47e0      	blx	ip
 8001a4a:	2800      	cmp	r0, #0
 8001a4c:	dc07      	bgt.n	8001a5e <__sflush_r+0xf6>
 8001a4e:	f9b4 300c 	ldrsh.w	r3, [r4, #12]
 8001a52:	f043 0340 	orr.w	r3, r3, #64	@ 0x40
 8001a56:	81a3      	strh	r3, [r4, #12]
 8001a58:	f04f 30ff 	mov.w	r0, #4294967295
 8001a5c:	bdf8      	pop	{r3, r4, r5, r6, r7, pc}
 8001a5e:	4407      	add	r7, r0
 8001a60:	1a36      	subs	r6, r6, r0
 8001a62:	e7e9      	b.n	8001a38 <__sflush_r+0xd0>
 8001a64:	dfbffffe 	.word	0xdfbffffe

08001a68 <_fflush_r>:
 8001a68:	b538      	push	{r3, r4, r5, lr}
 8001a6a:	690b      	ldr	r3, [r1, #16]
 8001a6c:	4605      	mov	r5, r0
 8001a6e:	460c      	mov	r4, r1
 8001a70:	b913      	cbnz	r3, 8001a78 <_fflush_r+0x10>
 8001a72:	2500      	movs	r5, #0
 8001a74:	4628      	mov	r0, r5
 8001a76:	bd38      	pop	{r3, r4, r5, pc}
 8001a78:	b118      	cbz	r0, 8001a82 <_fflush_r+0x1a>
 8001a7a:	6a03      	ldr	r3, [r0, #32]
 8001a7c:	b90b      	cbnz	r3, 8001a82 <_fflush_r+0x1a>
 8001a7e:	f7ff faa5 	bl	8000fcc <__sinit>
 8001a82:	f9b4 300c 	ldrsh.w	r3, [r4, #12]
 8001a86:	2b00      	cmp	r3, #0
 8001a88:	d0f3      	beq.n	8001a72 <_fflush_r+0xa>
 8001a8a:	6e62      	ldr	r2, [r4, #100]	@ 0x64
 8001a8c:	07d0      	lsls	r0, r2, #31
 8001a8e:	d404      	bmi.n	8001a9a <_fflush_r+0x32>
 8001a90:	0599      	lsls	r1, r3, #22
 8001a92:	d402      	bmi.n	8001a9a <_fflush_r+0x32>
 8001a94:	6da0      	ldr	r0, [r4, #88]	@ 0x58
 8001a96:	f7ff fb9e 	bl	80011d6 <__retarget_lock_acquire_recursive>
 8001a9a:	4628      	mov	r0, r5
 8001a9c:	4621      	mov	r1, r4
 8001a9e:	f7ff ff63 	bl	8001968 <__sflush_r>
 8001aa2:	6e63      	ldr	r3, [r4, #100]	@ 0x64
 8001aa4:	07da      	lsls	r2, r3, #31
 8001aa6:	4605      	mov	r5, r0
 8001aa8:	d4e4      	bmi.n	8001a74 <_fflush_r+0xc>
 8001aaa:	89a3      	ldrh	r3, [r4, #12]
 8001aac:	059b      	lsls	r3, r3, #22
 8001aae:	d4e1      	bmi.n	8001a74 <_fflush_r+0xc>
 8001ab0:	6da0      	ldr	r0, [r4, #88]	@ 0x58
 8001ab2:	f7ff fb91 	bl	80011d8 <__retarget_lock_release_recursive>
 8001ab6:	e7dd      	b.n	8001a74 <_fflush_r+0xc>

08001ab8 <__swbuf_r>:
 8001ab8:	b5f8      	push	{r3, r4, r5, r6, r7, lr}
 8001aba:	460e      	mov	r6, r1
 8001abc:	4614      	mov	r4, r2
 8001abe:	4605      	mov	r5, r0
 8001ac0:	b118      	cbz	r0, 8001aca <__swbuf_r+0x12>
 8001ac2:	6a03      	ldr	r3, [r0, #32]
 8001ac4:	b90b      	cbnz	r3, 8001aca <__swbuf_r+0x12>
 8001ac6:	f7ff fa81 	bl	8000fcc <__sinit>
 8001aca:	69a3      	ldr	r3, [r4, #24]
 8001acc:	60a3      	str	r3, [r4, #8]
 8001ace:	89a3      	ldrh	r3, [r4, #12]
 8001ad0:	071a      	lsls	r2, r3, #28
 8001ad2:	d501      	bpl.n	8001ad8 <__swbuf_r+0x20>
 8001ad4:	6923      	ldr	r3, [r4, #16]
 8001ad6:	b943      	cbnz	r3, 8001aea <__swbuf_r+0x32>
 8001ad8:	4621      	mov	r1, r4
 8001ada:	4628      	mov	r0, r5
 8001adc:	f000 f82a 	bl	8001b34 <__swsetup_r>
 8001ae0:	b118      	cbz	r0, 8001aea <__swbuf_r+0x32>
 8001ae2:	f04f 37ff 	mov.w	r7, #4294967295
 8001ae6:	4638      	mov	r0, r7
 8001ae8:	bdf8      	pop	{r3, r4, r5, r6, r7, pc}
 8001aea:	6823      	ldr	r3, [r4, #0]
 8001aec:	6922      	ldr	r2, [r4, #16]
 8001aee:	1a98      	subs	r0, r3, r2
 8001af0:	6963      	ldr	r3, [r4, #20]
 8001af2:	b2f6      	uxtb	r6, r6
 8001af4:	4283      	cmp	r3, r0
 8001af6:	4637      	mov	r7, r6
 8001af8:	dc05      	bgt.n	8001b06 <__swbuf_r+0x4e>
 8001afa:	4621      	mov	r1, r4
 8001afc:	4628      	mov	r0, r5
 8001afe:	f7ff ffb3 	bl	8001a68 <_fflush_r>
 8001b02:	2800      	cmp	r0, #0
 8001b04:	d1ed      	bne.n	8001ae2 <__swbuf_r+0x2a>
 8001b06:	68a3      	ldr	r3, [r4, #8]
 8001b08:	3b01      	subs	r3, #1
 8001b0a:	60a3      	str	r3, [r4, #8]
 8001b0c:	6823      	ldr	r3, [r4, #0]
 8001b0e:	1c5a      	adds	r2, r3, #1
 8001b10:	6022      	str	r2, [r4, #0]
 8001b12:	701e      	strb	r6, [r3, #0]
 8001b14:	6962      	ldr	r2, [r4, #20]
 8001b16:	1c43      	adds	r3, r0, #1
 8001b18:	429a      	cmp	r2, r3
 8001b1a:	d004      	beq.n	8001b26 <__swbuf_r+0x6e>
 8001b1c:	89a3      	ldrh	r3, [r4, #12]
 8001b1e:	07db      	lsls	r3, r3, #31
 8001b20:	d5e1      	bpl.n	8001ae6 <__swbuf_r+0x2e>
 8001b22:	2e0a      	cmp	r6, #10
 8001b24:	d1df      	bne.n	8001ae6 <__swbuf_r+0x2e>
 8001b26:	4621      	mov	r1, r4
 8001b28:	4628      	mov	r0, r5
 8001b2a:	f7ff ff9d 	bl	8001a68 <_fflush_r>
 8001b2e:	2800      	cmp	r0, #0
 8001b30:	d0d9      	beq.n	8001ae6 <__swbuf_r+0x2e>
 8001b32:	e7d6      	b.n	8001ae2 <__swbuf_r+0x2a>

08001b34 <__swsetup_r>:
 8001b34:	b538      	push	{r3, r4, r5, lr}
 8001b36:	4b29      	ldr	r3, [pc, #164]	@ (8001bdc <__swsetup_r+0xa8>)
 8001b38:	4605      	mov	r5, r0
 8001b3a:	6818      	ldr	r0, [r3, #0]
 8001b3c:	460c      	mov	r4, r1
 8001b3e:	b118      	cbz	r0, 8001b48 <__swsetup_r+0x14>
 8001b40:	6a03      	ldr	r3, [r0, #32]
 8001b42:	b90b      	cbnz	r3, 8001b48 <__swsetup_r+0x14>
 8001b44:	f7ff fa42 	bl	8000fcc <__sinit>
 8001b48:	f9b4 300c 	ldrsh.w	r3, [r4, #12]
 8001b4c:	0719      	lsls	r1, r3, #28
 8001b4e:	d422      	bmi.n	8001b96 <__swsetup_r+0x62>
 8001b50:	06da      	lsls	r2, r3, #27
 8001b52:	d407      	bmi.n	8001b64 <__swsetup_r+0x30>
 8001b54:	2209      	movs	r2, #9
 8001b56:	602a      	str	r2, [r5, #0]
 8001b58:	f043 0340 	orr.w	r3, r3, #64	@ 0x40
 8001b5c:	81a3      	strh	r3, [r4, #12]
 8001b5e:	f04f 30ff 	mov.w	r0, #4294967295
 8001b62:	e033      	b.n	8001bcc <__swsetup_r+0x98>
 8001b64:	0758      	lsls	r0, r3, #29
 8001b66:	d512      	bpl.n	8001b8e <__swsetup_r+0x5a>
 8001b68:	6b61      	ldr	r1, [r4, #52]	@ 0x34
 8001b6a:	b141      	cbz	r1, 8001b7e <__swsetup_r+0x4a>
 8001b6c:	f104 0344 	add.w	r3, r4, #68	@ 0x44
 8001b70:	4299      	cmp	r1, r3
 8001b72:	d002      	beq.n	8001b7a <__swsetup_r+0x46>
 8001b74:	4628      	mov	r0, r5
 8001b76:	f7ff fb31 	bl	80011dc <_free_r>
 8001b7a:	2300      	movs	r3, #0
 8001b7c:	6363      	str	r3, [r4, #52]	@ 0x34
 8001b7e:	89a3      	ldrh	r3, [r4, #12]
 8001b80:	f023 0324 	bic.w	r3, r3, #36	@ 0x24
 8001b84:	81a3      	strh	r3, [r4, #12]
 8001b86:	2300      	movs	r3, #0
 8001b88:	6063      	str	r3, [r4, #4]
 8001b8a:	6923      	ldr	r3, [r4, #16]
 8001b8c:	6023      	str	r3, [r4, #0]
 8001b8e:	89a3      	ldrh	r3, [r4, #12]
 8001b90:	f043 0308 	orr.w	r3, r3, #8
 8001b94:	81a3      	strh	r3, [r4, #12]
 8001b96:	6923      	ldr	r3, [r4, #16]
 8001b98:	b94b      	cbnz	r3, 8001bae <__swsetup_r+0x7a>
 8001b9a:	89a3      	ldrh	r3, [r4, #12]
 8001b9c:	f403 7320 	and.w	r3, r3, #640	@ 0x280
 8001ba0:	f5b3 7f00 	cmp.w	r3, #512	@ 0x200
 8001ba4:	d003      	beq.n	8001bae <__swsetup_r+0x7a>
 8001ba6:	4621      	mov	r1, r4
 8001ba8:	4628      	mov	r0, r5
 8001baa:	f000 f84f 	bl	8001c4c <__smakebuf_r>
 8001bae:	f9b4 300c 	ldrsh.w	r3, [r4, #12]
 8001bb2:	f013 0201 	ands.w	r2, r3, #1
 8001bb6:	d00a      	beq.n	8001bce <__swsetup_r+0x9a>
 8001bb8:	2200      	movs	r2, #0
 8001bba:	60a2      	str	r2, [r4, #8]
 8001bbc:	6962      	ldr	r2, [r4, #20]
 8001bbe:	4252      	negs	r2, r2
 8001bc0:	61a2      	str	r2, [r4, #24]
 8001bc2:	6922      	ldr	r2, [r4, #16]
 8001bc4:	b942      	cbnz	r2, 8001bd8 <__swsetup_r+0xa4>
 8001bc6:	f013 0080 	ands.w	r0, r3, #128	@ 0x80
 8001bca:	d1c5      	bne.n	8001b58 <__swsetup_r+0x24>
 8001bcc:	bd38      	pop	{r3, r4, r5, pc}
 8001bce:	0799      	lsls	r1, r3, #30
 8001bd0:	bf58      	it	pl
 8001bd2:	6962      	ldrpl	r2, [r4, #20]
 8001bd4:	60a2      	str	r2, [r4, #8]
 8001bd6:	e7f4      	b.n	8001bc2 <__swsetup_r+0x8e>
 8001bd8:	2000      	movs	r0, #0
 8001bda:	e7f7      	b.n	8001bcc <__swsetup_r+0x98>
 8001bdc:	20000010 	.word	0x20000010

08001be0 <_sbrk_r>:
 8001be0:	b538      	push	{r3, r4, r5, lr}
 8001be2:	4d06      	ldr	r5, [pc, #24]	@ (8001bfc <_sbrk_r+0x1c>)
 8001be4:	2300      	movs	r3, #0
 8001be6:	4604      	mov	r4, r0
 8001be8:	4608      	mov	r0, r1
 8001bea:	602b      	str	r3, [r5, #0]
 8001bec:	f7fe fc64 	bl	80004b8 <_sbrk>
 8001bf0:	1c43      	adds	r3, r0, #1
 8001bf2:	d102      	bne.n	8001bfa <_sbrk_r+0x1a>
 8001bf4:	682b      	ldr	r3, [r5, #0]
 8001bf6:	b103      	cbz	r3, 8001bfa <_sbrk_r+0x1a>
 8001bf8:	6023      	str	r3, [r4, #0]
 8001bfa:	bd38      	pop	{r3, r4, r5, pc}
 8001bfc:	200005e8 	.word	0x200005e8

08001c00 <__swhatbuf_r>:
 8001c00:	b570      	push	{r4, r5, r6, lr}
 8001c02:	460c      	mov	r4, r1
 8001c04:	f9b1 100e 	ldrsh.w	r1, [r1, #14]
 8001c08:	2900      	cmp	r1, #0
 8001c0a:	b096      	sub	sp, #88	@ 0x58
 8001c0c:	4615      	mov	r5, r2
 8001c0e:	461e      	mov	r6, r3
 8001c10:	da0d      	bge.n	8001c2e <__swhatbuf_r+0x2e>
 8001c12:	89a3      	ldrh	r3, [r4, #12]
 8001c14:	f013 0f80 	tst.w	r3, #128	@ 0x80
 8001c18:	f04f 0100 	mov.w	r1, #0
 8001c1c:	bf14      	ite	ne
 8001c1e:	2340      	movne	r3, #64	@ 0x40
 8001c20:	f44f 6380 	moveq.w	r3, #1024	@ 0x400
 8001c24:	2000      	movs	r0, #0
 8001c26:	6031      	str	r1, [r6, #0]
 8001c28:	602b      	str	r3, [r5, #0]
 8001c2a:	b016      	add	sp, #88	@ 0x58
 8001c2c:	bd70      	pop	{r4, r5, r6, pc}
 8001c2e:	466a      	mov	r2, sp
 8001c30:	f000 f848 	bl	8001cc4 <_fstat_r>
 8001c34:	2800      	cmp	r0, #0
 8001c36:	dbec      	blt.n	8001c12 <__swhatbuf_r+0x12>
 8001c38:	9901      	ldr	r1, [sp, #4]
 8001c3a:	f401 4170 	and.w	r1, r1, #61440	@ 0xf000
 8001c3e:	f5a1 5300 	sub.w	r3, r1, #8192	@ 0x2000
 8001c42:	4259      	negs	r1, r3
 8001c44:	4159      	adcs	r1, r3
 8001c46:	f44f 6380 	mov.w	r3, #1024	@ 0x400
 8001c4a:	e7eb      	b.n	8001c24 <__swhatbuf_r+0x24>

08001c4c <__smakebuf_r>:
 8001c4c:	898b      	ldrh	r3, [r1, #12]
 8001c4e:	b5f7      	push	{r0, r1, r2, r4, r5, r6, r7, lr}
 8001c50:	079d      	lsls	r5, r3, #30
 8001c52:	4606      	mov	r6, r0
 8001c54:	460c      	mov	r4, r1
 8001c56:	d507      	bpl.n	8001c68 <__smakebuf_r+0x1c>
 8001c58:	f104 0347 	add.w	r3, r4, #71	@ 0x47
 8001c5c:	6023      	str	r3, [r4, #0]
 8001c5e:	6123      	str	r3, [r4, #16]
 8001c60:	2301      	movs	r3, #1
 8001c62:	6163      	str	r3, [r4, #20]
 8001c64:	b003      	add	sp, #12
 8001c66:	bdf0      	pop	{r4, r5, r6, r7, pc}
 8001c68:	ab01      	add	r3, sp, #4
 8001c6a:	466a      	mov	r2, sp
 8001c6c:	f7ff ffc8 	bl	8001c00 <__swhatbuf_r>
 8001c70:	9f00      	ldr	r7, [sp, #0]
 8001c72:	4605      	mov	r5, r0
 8001c74:	4639      	mov	r1, r7
 8001c76:	4630      	mov	r0, r6
 8001c78:	f7ff fb1c 	bl	80012b4 <_malloc_r>
 8001c7c:	b948      	cbnz	r0, 8001c92 <__smakebuf_r+0x46>
 8001c7e:	f9b4 300c 	ldrsh.w	r3, [r4, #12]
 8001c82:	059a      	lsls	r2, r3, #22
 8001c84:	d4ee      	bmi.n	8001c64 <__smakebuf_r+0x18>
 8001c86:	f023 0303 	bic.w	r3, r3, #3
 8001c8a:	f043 0302 	orr.w	r3, r3, #2
 8001c8e:	81a3      	strh	r3, [r4, #12]
 8001c90:	e7e2      	b.n	8001c58 <__smakebuf_r+0xc>
 8001c92:	89a3      	ldrh	r3, [r4, #12]
 8001c94:	6020      	str	r0, [r4, #0]
 8001c96:	f043 0380 	orr.w	r3, r3, #128	@ 0x80
 8001c9a:	81a3      	strh	r3, [r4, #12]
 8001c9c:	9b01      	ldr	r3, [sp, #4]
 8001c9e:	e9c4 0704 	strd	r0, r7, [r4, #16]
 8001ca2:	b15b      	cbz	r3, 8001cbc <__smakebuf_r+0x70>
 8001ca4:	f9b4 100e 	ldrsh.w	r1, [r4, #14]
 8001ca8:	4630      	mov	r0, r6
 8001caa:	f000 f81d 	bl	8001ce8 <_isatty_r>
 8001cae:	b128      	cbz	r0, 8001cbc <__smakebuf_r+0x70>
 8001cb0:	89a3      	ldrh	r3, [r4, #12]
 8001cb2:	f023 0303 	bic.w	r3, r3, #3
 8001cb6:	f043 0301 	orr.w	r3, r3, #1
 8001cba:	81a3      	strh	r3, [r4, #12]
 8001cbc:	89a3      	ldrh	r3, [r4, #12]
 8001cbe:	431d      	orrs	r5, r3
 8001cc0:	81a5      	strh	r5, [r4, #12]
 8001cc2:	e7cf      	b.n	8001c64 <__smakebuf_r+0x18>

08001cc4 <_fstat_r>:
 8001cc4:	b538      	push	{r3, r4, r5, lr}
 8001cc6:	4d07      	ldr	r5, [pc, #28]	@ (8001ce4 <_fstat_r+0x20>)
 8001cc8:	2300      	movs	r3, #0
 8001cca:	4604      	mov	r4, r0
 8001ccc:	4608      	mov	r0, r1
 8001cce:	4611      	mov	r1, r2
 8001cd0:	602b      	str	r3, [r5, #0]
 8001cd2:	f7fe fbcb 	bl	800046c <_fstat>
 8001cd6:	1c43      	adds	r3, r0, #1
 8001cd8:	d102      	bne.n	8001ce0 <_fstat_r+0x1c>
 8001cda:	682b      	ldr	r3, [r5, #0]
 8001cdc:	b103      	cbz	r3, 8001ce0 <_fstat_r+0x1c>
 8001cde:	6023      	str	r3, [r4, #0]
 8001ce0:	bd38      	pop	{r3, r4, r5, pc}
 8001ce2:	bf00      	nop
 8001ce4:	200005e8 	.word	0x200005e8

08001ce8 <_isatty_r>:
 8001ce8:	b538      	push	{r3, r4, r5, lr}
 8001cea:	4d06      	ldr	r5, [pc, #24]	@ (8001d04 <_isatty_r+0x1c>)
 8001cec:	2300      	movs	r3, #0
 8001cee:	4604      	mov	r4, r0
 8001cf0:	4608      	mov	r0, r1
 8001cf2:	602b      	str	r3, [r5, #0]
 8001cf4:	f7fe fbc9 	bl	800048a <_isatty>
 8001cf8:	1c43      	adds	r3, r0, #1
 8001cfa:	d102      	bne.n	8001d02 <_isatty_r+0x1a>
 8001cfc:	682b      	ldr	r3, [r5, #0]
 8001cfe:	b103      	cbz	r3, 8001d02 <_isatty_r+0x1a>
 8001d00:	6023      	str	r3, [r4, #0]
 8001d02:	bd38      	pop	{r3, r4, r5, pc}
 8001d04:	200005e8 	.word	0x200005e8

08001d08 <_init>:
 8001d08:	b5f8      	push	{r3, r4, r5, r6, r7, lr}
 8001d0a:	bf00      	nop
 8001d0c:	bcf8      	pop	{r3, r4, r5, r6, r7}
 8001d0e:	bc08      	pop	{r3}
 8001d10:	469e      	mov	lr, r3
 8001d12:	4770      	bx	lr

08001d14 <_fini>:
 8001d14:	b5f8      	push	{r3, r4, r5, r6, r7, lr}
 8001d16:	bf00      	nop
 8001d18:	bcf8      	pop	{r3, r4, r5, r6, r7}
 8001d1a:	bc08      	pop	{r3}
 8001d1c:	469e      	mov	lr, r3
 8001d1e:	4770      	bx	lr
